
rtarget:     file format elf64-x86-64


Disassembly of section .init:

0000000000400c48 <_init>:
  400c48:	48 83 ec 08          	sub    $0x8,%rsp
  400c4c:	48 8b 05 a5 43 20 00 	mov    0x2043a5(%rip),%rax        # 604ff8 <_DYNAMIC+0x1d0>
  400c53:	48 85 c0             	test   %rax,%rax
  400c56:	74 05                	je     400c5d <_init+0x15>
  400c58:	e8 43 02 00 00       	callq  400ea0 <socket@plt+0x10>
  400c5d:	48 83 c4 08          	add    $0x8,%rsp
  400c61:	c3                   	retq   

Disassembly of section .plt:

0000000000400c70 <strcasecmp@plt-0x10>:
  400c70:	ff 35 92 43 20 00    	pushq  0x204392(%rip)        # 605008 <_GLOBAL_OFFSET_TABLE_+0x8>
  400c76:	ff 25 94 43 20 00    	jmpq   *0x204394(%rip)        # 605010 <_GLOBAL_OFFSET_TABLE_+0x10>
  400c7c:	0f 1f 40 00          	nopl   0x0(%rax)

0000000000400c80 <strcasecmp@plt>:
  400c80:	ff 25 92 43 20 00    	jmpq   *0x204392(%rip)        # 605018 <_GLOBAL_OFFSET_TABLE_+0x18>
  400c86:	68 00 00 00 00       	pushq  $0x0
  400c8b:	e9 e0 ff ff ff       	jmpq   400c70 <_init+0x28>

0000000000400c90 <__errno_location@plt>:
  400c90:	ff 25 8a 43 20 00    	jmpq   *0x20438a(%rip)        # 605020 <_GLOBAL_OFFSET_TABLE_+0x20>
  400c96:	68 01 00 00 00       	pushq  $0x1
  400c9b:	e9 d0 ff ff ff       	jmpq   400c70 <_init+0x28>

0000000000400ca0 <srandom@plt>:
  400ca0:	ff 25 82 43 20 00    	jmpq   *0x204382(%rip)        # 605028 <_GLOBAL_OFFSET_TABLE_+0x28>
  400ca6:	68 02 00 00 00       	pushq  $0x2
  400cab:	e9 c0 ff ff ff       	jmpq   400c70 <_init+0x28>

0000000000400cb0 <strncmp@plt>:
  400cb0:	ff 25 7a 43 20 00    	jmpq   *0x20437a(%rip)        # 605030 <_GLOBAL_OFFSET_TABLE_+0x30>
  400cb6:	68 03 00 00 00       	pushq  $0x3
  400cbb:	e9 b0 ff ff ff       	jmpq   400c70 <_init+0x28>

0000000000400cc0 <strcpy@plt>:
  400cc0:	ff 25 72 43 20 00    	jmpq   *0x204372(%rip)        # 605038 <_GLOBAL_OFFSET_TABLE_+0x38>
  400cc6:	68 04 00 00 00       	pushq  $0x4
  400ccb:	e9 a0 ff ff ff       	jmpq   400c70 <_init+0x28>

0000000000400cd0 <puts@plt>:
  400cd0:	ff 25 6a 43 20 00    	jmpq   *0x20436a(%rip)        # 605040 <_GLOBAL_OFFSET_TABLE_+0x40>
  400cd6:	68 05 00 00 00       	pushq  $0x5
  400cdb:	e9 90 ff ff ff       	jmpq   400c70 <_init+0x28>

0000000000400ce0 <write@plt>:
  400ce0:	ff 25 62 43 20 00    	jmpq   *0x204362(%rip)        # 605048 <_GLOBAL_OFFSET_TABLE_+0x48>
  400ce6:	68 06 00 00 00       	pushq  $0x6
  400ceb:	e9 80 ff ff ff       	jmpq   400c70 <_init+0x28>

0000000000400cf0 <__stack_chk_fail@plt>:
  400cf0:	ff 25 5a 43 20 00    	jmpq   *0x20435a(%rip)        # 605050 <_GLOBAL_OFFSET_TABLE_+0x50>
  400cf6:	68 07 00 00 00       	pushq  $0x7
  400cfb:	e9 70 ff ff ff       	jmpq   400c70 <_init+0x28>

0000000000400d00 <mmap@plt>:
  400d00:	ff 25 52 43 20 00    	jmpq   *0x204352(%rip)        # 605058 <_GLOBAL_OFFSET_TABLE_+0x58>
  400d06:	68 08 00 00 00       	pushq  $0x8
  400d0b:	e9 60 ff ff ff       	jmpq   400c70 <_init+0x28>

0000000000400d10 <memset@plt>:
  400d10:	ff 25 4a 43 20 00    	jmpq   *0x20434a(%rip)        # 605060 <_GLOBAL_OFFSET_TABLE_+0x60>
  400d16:	68 09 00 00 00       	pushq  $0x9
  400d1b:	e9 50 ff ff ff       	jmpq   400c70 <_init+0x28>

0000000000400d20 <alarm@plt>:
  400d20:	ff 25 42 43 20 00    	jmpq   *0x204342(%rip)        # 605068 <_GLOBAL_OFFSET_TABLE_+0x68>
  400d26:	68 0a 00 00 00       	pushq  $0xa
  400d2b:	e9 40 ff ff ff       	jmpq   400c70 <_init+0x28>

0000000000400d30 <close@plt>:
  400d30:	ff 25 3a 43 20 00    	jmpq   *0x20433a(%rip)        # 605070 <_GLOBAL_OFFSET_TABLE_+0x70>
  400d36:	68 0b 00 00 00       	pushq  $0xb
  400d3b:	e9 30 ff ff ff       	jmpq   400c70 <_init+0x28>

0000000000400d40 <read@plt>:
  400d40:	ff 25 32 43 20 00    	jmpq   *0x204332(%rip)        # 605078 <_GLOBAL_OFFSET_TABLE_+0x78>
  400d46:	68 0c 00 00 00       	pushq  $0xc
  400d4b:	e9 20 ff ff ff       	jmpq   400c70 <_init+0x28>

0000000000400d50 <__libc_start_main@plt>:
  400d50:	ff 25 2a 43 20 00    	jmpq   *0x20432a(%rip)        # 605080 <_GLOBAL_OFFSET_TABLE_+0x80>
  400d56:	68 0d 00 00 00       	pushq  $0xd
  400d5b:	e9 10 ff ff ff       	jmpq   400c70 <_init+0x28>

0000000000400d60 <signal@plt>:
  400d60:	ff 25 22 43 20 00    	jmpq   *0x204322(%rip)        # 605088 <_GLOBAL_OFFSET_TABLE_+0x88>
  400d66:	68 0e 00 00 00       	pushq  $0xe
  400d6b:	e9 00 ff ff ff       	jmpq   400c70 <_init+0x28>

0000000000400d70 <gethostbyname@plt>:
  400d70:	ff 25 1a 43 20 00    	jmpq   *0x20431a(%rip)        # 605090 <_GLOBAL_OFFSET_TABLE_+0x90>
  400d76:	68 0f 00 00 00       	pushq  $0xf
  400d7b:	e9 f0 fe ff ff       	jmpq   400c70 <_init+0x28>

0000000000400d80 <__memmove_chk@plt>:
  400d80:	ff 25 12 43 20 00    	jmpq   *0x204312(%rip)        # 605098 <_GLOBAL_OFFSET_TABLE_+0x98>
  400d86:	68 10 00 00 00       	pushq  $0x10
  400d8b:	e9 e0 fe ff ff       	jmpq   400c70 <_init+0x28>

0000000000400d90 <strtol@plt>:
  400d90:	ff 25 0a 43 20 00    	jmpq   *0x20430a(%rip)        # 6050a0 <_GLOBAL_OFFSET_TABLE_+0xa0>
  400d96:	68 11 00 00 00       	pushq  $0x11
  400d9b:	e9 d0 fe ff ff       	jmpq   400c70 <_init+0x28>

0000000000400da0 <memcpy@plt>:
  400da0:	ff 25 02 43 20 00    	jmpq   *0x204302(%rip)        # 6050a8 <_GLOBAL_OFFSET_TABLE_+0xa8>
  400da6:	68 12 00 00 00       	pushq  $0x12
  400dab:	e9 c0 fe ff ff       	jmpq   400c70 <_init+0x28>

0000000000400db0 <time@plt>:
  400db0:	ff 25 fa 42 20 00    	jmpq   *0x2042fa(%rip)        # 6050b0 <_GLOBAL_OFFSET_TABLE_+0xb0>
  400db6:	68 13 00 00 00       	pushq  $0x13
  400dbb:	e9 b0 fe ff ff       	jmpq   400c70 <_init+0x28>

0000000000400dc0 <random@plt>:
  400dc0:	ff 25 f2 42 20 00    	jmpq   *0x2042f2(%rip)        # 6050b8 <_GLOBAL_OFFSET_TABLE_+0xb8>
  400dc6:	68 14 00 00 00       	pushq  $0x14
  400dcb:	e9 a0 fe ff ff       	jmpq   400c70 <_init+0x28>

0000000000400dd0 <_IO_getc@plt>:
  400dd0:	ff 25 ea 42 20 00    	jmpq   *0x2042ea(%rip)        # 6050c0 <_GLOBAL_OFFSET_TABLE_+0xc0>
  400dd6:	68 15 00 00 00       	pushq  $0x15
  400ddb:	e9 90 fe ff ff       	jmpq   400c70 <_init+0x28>

0000000000400de0 <__isoc99_sscanf@plt>:
  400de0:	ff 25 e2 42 20 00    	jmpq   *0x2042e2(%rip)        # 6050c8 <_GLOBAL_OFFSET_TABLE_+0xc8>
  400de6:	68 16 00 00 00       	pushq  $0x16
  400deb:	e9 80 fe ff ff       	jmpq   400c70 <_init+0x28>

0000000000400df0 <munmap@plt>:
  400df0:	ff 25 da 42 20 00    	jmpq   *0x2042da(%rip)        # 6050d0 <_GLOBAL_OFFSET_TABLE_+0xd0>
  400df6:	68 17 00 00 00       	pushq  $0x17
  400dfb:	e9 70 fe ff ff       	jmpq   400c70 <_init+0x28>

0000000000400e00 <__printf_chk@plt>:
  400e00:	ff 25 d2 42 20 00    	jmpq   *0x2042d2(%rip)        # 6050d8 <_GLOBAL_OFFSET_TABLE_+0xd8>
  400e06:	68 18 00 00 00       	pushq  $0x18
  400e0b:	e9 60 fe ff ff       	jmpq   400c70 <_init+0x28>

0000000000400e10 <fopen@plt>:
  400e10:	ff 25 ca 42 20 00    	jmpq   *0x2042ca(%rip)        # 6050e0 <_GLOBAL_OFFSET_TABLE_+0xe0>
  400e16:	68 19 00 00 00       	pushq  $0x19
  400e1b:	e9 50 fe ff ff       	jmpq   400c70 <_init+0x28>

0000000000400e20 <getopt@plt>:
  400e20:	ff 25 c2 42 20 00    	jmpq   *0x2042c2(%rip)        # 6050e8 <_GLOBAL_OFFSET_TABLE_+0xe8>
  400e26:	68 1a 00 00 00       	pushq  $0x1a
  400e2b:	e9 40 fe ff ff       	jmpq   400c70 <_init+0x28>

0000000000400e30 <strtoul@plt>:
  400e30:	ff 25 ba 42 20 00    	jmpq   *0x2042ba(%rip)        # 6050f0 <_GLOBAL_OFFSET_TABLE_+0xf0>
  400e36:	68 1b 00 00 00       	pushq  $0x1b
  400e3b:	e9 30 fe ff ff       	jmpq   400c70 <_init+0x28>

0000000000400e40 <gethostname@plt>:
  400e40:	ff 25 b2 42 20 00    	jmpq   *0x2042b2(%rip)        # 6050f8 <_GLOBAL_OFFSET_TABLE_+0xf8>
  400e46:	68 1c 00 00 00       	pushq  $0x1c
  400e4b:	e9 20 fe ff ff       	jmpq   400c70 <_init+0x28>

0000000000400e50 <exit@plt>:
  400e50:	ff 25 aa 42 20 00    	jmpq   *0x2042aa(%rip)        # 605100 <_GLOBAL_OFFSET_TABLE_+0x100>
  400e56:	68 1d 00 00 00       	pushq  $0x1d
  400e5b:	e9 10 fe ff ff       	jmpq   400c70 <_init+0x28>

0000000000400e60 <connect@plt>:
  400e60:	ff 25 a2 42 20 00    	jmpq   *0x2042a2(%rip)        # 605108 <_GLOBAL_OFFSET_TABLE_+0x108>
  400e66:	68 1e 00 00 00       	pushq  $0x1e
  400e6b:	e9 00 fe ff ff       	jmpq   400c70 <_init+0x28>

0000000000400e70 <__fprintf_chk@plt>:
  400e70:	ff 25 9a 42 20 00    	jmpq   *0x20429a(%rip)        # 605110 <_GLOBAL_OFFSET_TABLE_+0x110>
  400e76:	68 1f 00 00 00       	pushq  $0x1f
  400e7b:	e9 f0 fd ff ff       	jmpq   400c70 <_init+0x28>

0000000000400e80 <__sprintf_chk@plt>:
  400e80:	ff 25 92 42 20 00    	jmpq   *0x204292(%rip)        # 605118 <_GLOBAL_OFFSET_TABLE_+0x118>
  400e86:	68 20 00 00 00       	pushq  $0x20
  400e8b:	e9 e0 fd ff ff       	jmpq   400c70 <_init+0x28>

0000000000400e90 <socket@plt>:
  400e90:	ff 25 8a 42 20 00    	jmpq   *0x20428a(%rip)        # 605120 <_GLOBAL_OFFSET_TABLE_+0x120>
  400e96:	68 21 00 00 00       	pushq  $0x21
  400e9b:	e9 d0 fd ff ff       	jmpq   400c70 <_init+0x28>

Disassembly of section .plt.got:

0000000000400ea0 <.plt.got>:
  400ea0:	ff 25 52 41 20 00    	jmpq   *0x204152(%rip)        # 604ff8 <_DYNAMIC+0x1d0>
  400ea6:	66 90                	xchg   %ax,%ax

Disassembly of section .text:

0000000000400eb0 <_start>:
  400eb0:	31 ed                	xor    %ebp,%ebp
  400eb2:	49 89 d1             	mov    %rdx,%r9
  400eb5:	5e                   	pop    %rsi
  400eb6:	48 89 e2             	mov    %rsp,%rdx
  400eb9:	48 83 e4 f0          	and    $0xfffffffffffffff0,%rsp
  400ebd:	50                   	push   %rax
  400ebe:	54                   	push   %rsp
  400ebf:	49 c7 c0 30 30 40 00 	mov    $0x403030,%r8
  400ec6:	48 c7 c1 c0 2f 40 00 	mov    $0x402fc0,%rcx
  400ecd:	48 c7 c7 b5 11 40 00 	mov    $0x4011b5,%rdi
  400ed4:	e8 77 fe ff ff       	callq  400d50 <__libc_start_main@plt>
  400ed9:	f4                   	hlt    
  400eda:	66 0f 1f 44 00 00    	nopw   0x0(%rax,%rax,1)

0000000000400ee0 <deregister_tm_clones>:
  400ee0:	b8 b7 54 60 00       	mov    $0x6054b7,%eax
  400ee5:	55                   	push   %rbp
  400ee6:	48 2d b0 54 60 00    	sub    $0x6054b0,%rax
  400eec:	48 83 f8 0e          	cmp    $0xe,%rax
  400ef0:	48 89 e5             	mov    %rsp,%rbp
  400ef3:	76 1b                	jbe    400f10 <deregister_tm_clones+0x30>
  400ef5:	b8 00 00 00 00       	mov    $0x0,%eax
  400efa:	48 85 c0             	test   %rax,%rax
  400efd:	74 11                	je     400f10 <deregister_tm_clones+0x30>
  400eff:	5d                   	pop    %rbp
  400f00:	bf b0 54 60 00       	mov    $0x6054b0,%edi
  400f05:	ff e0                	jmpq   *%rax
  400f07:	66 0f 1f 84 00 00 00 	nopw   0x0(%rax,%rax,1)
  400f0e:	00 00 
  400f10:	5d                   	pop    %rbp
  400f11:	c3                   	retq   
  400f12:	0f 1f 40 00          	nopl   0x0(%rax)
  400f16:	66 2e 0f 1f 84 00 00 	nopw   %cs:0x0(%rax,%rax,1)
  400f1d:	00 00 00 

0000000000400f20 <register_tm_clones>:
  400f20:	be b0 54 60 00       	mov    $0x6054b0,%esi
  400f25:	55                   	push   %rbp
  400f26:	48 81 ee b0 54 60 00 	sub    $0x6054b0,%rsi
  400f2d:	48 c1 fe 03          	sar    $0x3,%rsi
  400f31:	48 89 e5             	mov    %rsp,%rbp
  400f34:	48 89 f0             	mov    %rsi,%rax
  400f37:	48 c1 e8 3f          	shr    $0x3f,%rax
  400f3b:	48 01 c6             	add    %rax,%rsi
  400f3e:	48 d1 fe             	sar    %rsi
  400f41:	74 15                	je     400f58 <register_tm_clones+0x38>
  400f43:	b8 00 00 00 00       	mov    $0x0,%eax
  400f48:	48 85 c0             	test   %rax,%rax
  400f4b:	74 0b                	je     400f58 <register_tm_clones+0x38>
  400f4d:	5d                   	pop    %rbp
  400f4e:	bf b0 54 60 00       	mov    $0x6054b0,%edi
  400f53:	ff e0                	jmpq   *%rax
  400f55:	0f 1f 00             	nopl   (%rax)
  400f58:	5d                   	pop    %rbp
  400f59:	c3                   	retq   
  400f5a:	66 0f 1f 44 00 00    	nopw   0x0(%rax,%rax,1)

0000000000400f60 <__do_global_dtors_aux>:
  400f60:	80 3d 81 45 20 00 00 	cmpb   $0x0,0x204581(%rip)        # 6054e8 <completed.7594>
  400f67:	75 11                	jne    400f7a <__do_global_dtors_aux+0x1a>
  400f69:	55                   	push   %rbp
  400f6a:	48 89 e5             	mov    %rsp,%rbp
  400f6d:	e8 6e ff ff ff       	callq  400ee0 <deregister_tm_clones>
  400f72:	5d                   	pop    %rbp
  400f73:	c6 05 6e 45 20 00 01 	movb   $0x1,0x20456e(%rip)        # 6054e8 <completed.7594>
  400f7a:	f3 c3                	repz retq 
  400f7c:	0f 1f 40 00          	nopl   0x0(%rax)

0000000000400f80 <frame_dummy>:
  400f80:	bf 20 4e 60 00       	mov    $0x604e20,%edi
  400f85:	48 83 3f 00          	cmpq   $0x0,(%rdi)
  400f89:	75 05                	jne    400f90 <frame_dummy+0x10>
  400f8b:	eb 93                	jmp    400f20 <register_tm_clones>
  400f8d:	0f 1f 00             	nopl   (%rax)
  400f90:	b8 00 00 00 00       	mov    $0x0,%eax
  400f95:	48 85 c0             	test   %rax,%rax
  400f98:	74 f1                	je     400f8b <frame_dummy+0xb>
  400f9a:	55                   	push   %rbp
  400f9b:	48 89 e5             	mov    %rsp,%rbp
  400f9e:	ff d0                	callq  *%rax
  400fa0:	5d                   	pop    %rbp
  400fa1:	e9 7a ff ff ff       	jmpq   400f20 <register_tm_clones>

0000000000400fa6 <usage>:
  400fa6:	48 83 ec 08          	sub    $0x8,%rsp
  400faa:	48 89 fa             	mov    %rdi,%rdx
  400fad:	83 3d 74 45 20 00 00 	cmpl   $0x0,0x204574(%rip)        # 605528 <is_checker>
  400fb4:	74 3e                	je     400ff4 <usage+0x4e>
  400fb6:	be 48 30 40 00       	mov    $0x403048,%esi
  400fbb:	bf 01 00 00 00       	mov    $0x1,%edi
  400fc0:	b8 00 00 00 00       	mov    $0x0,%eax
  400fc5:	e8 36 fe ff ff       	callq  400e00 <__printf_chk@plt>
  400fca:	bf 80 30 40 00       	mov    $0x403080,%edi
  400fcf:	e8 fc fc ff ff       	callq  400cd0 <puts@plt>
  400fd4:	bf f8 31 40 00       	mov    $0x4031f8,%edi
  400fd9:	e8 f2 fc ff ff       	callq  400cd0 <puts@plt>
  400fde:	bf a8 30 40 00       	mov    $0x4030a8,%edi
  400fe3:	e8 e8 fc ff ff       	callq  400cd0 <puts@plt>
  400fe8:	bf 12 32 40 00       	mov    $0x403212,%edi
  400fed:	e8 de fc ff ff       	callq  400cd0 <puts@plt>
  400ff2:	eb 32                	jmp    401026 <usage+0x80>
  400ff4:	be 2e 32 40 00       	mov    $0x40322e,%esi
  400ff9:	bf 01 00 00 00       	mov    $0x1,%edi
  400ffe:	b8 00 00 00 00       	mov    $0x0,%eax
  401003:	e8 f8 fd ff ff       	callq  400e00 <__printf_chk@plt>
  401008:	bf d0 30 40 00       	mov    $0x4030d0,%edi
  40100d:	e8 be fc ff ff       	callq  400cd0 <puts@plt>
  401012:	bf f8 30 40 00       	mov    $0x4030f8,%edi
  401017:	e8 b4 fc ff ff       	callq  400cd0 <puts@plt>
  40101c:	bf 4c 32 40 00       	mov    $0x40324c,%edi
  401021:	e8 aa fc ff ff       	callq  400cd0 <puts@plt>
  401026:	bf 00 00 00 00       	mov    $0x0,%edi
  40102b:	e8 20 fe ff ff       	callq  400e50 <exit@plt>

0000000000401030 <initialize_target>:
  401030:	55                   	push   %rbp
  401031:	53                   	push   %rbx
  401032:	48 81 ec 18 21 00 00 	sub    $0x2118,%rsp
  401039:	89 f5                	mov    %esi,%ebp
  40103b:	64 48 8b 04 25 28 00 	mov    %fs:0x28,%rax
  401042:	00 00 
  401044:	48 89 84 24 08 21 00 	mov    %rax,0x2108(%rsp)
  40104b:	00 
  40104c:	31 c0                	xor    %eax,%eax
  40104e:	89 3d c4 44 20 00    	mov    %edi,0x2044c4(%rip)        # 605518 <check_level>
  401054:	8b 3d 0e 41 20 00    	mov    0x20410e(%rip),%edi        # 605168 <target_id>
  40105a:	e8 40 1f 00 00       	callq  402f9f <gencookie>
  40105f:	89 05 bf 44 20 00    	mov    %eax,0x2044bf(%rip)        # 605524 <cookie>
  401065:	89 c7                	mov    %eax,%edi
  401067:	e8 33 1f 00 00       	callq  402f9f <gencookie>
  40106c:	89 05 ae 44 20 00    	mov    %eax,0x2044ae(%rip)        # 605520 <authkey>
  401072:	8b 05 f0 40 20 00    	mov    0x2040f0(%rip),%eax        # 605168 <target_id>
  401078:	8d 78 01             	lea    0x1(%rax),%edi
  40107b:	e8 20 fc ff ff       	callq  400ca0 <srandom@plt>
  401080:	e8 3b fd ff ff       	callq  400dc0 <random@plt>
  401085:	89 c7                	mov    %eax,%edi
  401087:	e8 03 03 00 00       	callq  40138f <scramble>
  40108c:	89 c3                	mov    %eax,%ebx
  40108e:	85 ed                	test   %ebp,%ebp
  401090:	74 18                	je     4010aa <initialize_target+0x7a>
  401092:	bf 00 00 00 00       	mov    $0x0,%edi
  401097:	e8 14 fd ff ff       	callq  400db0 <time@plt>
  40109c:	89 c7                	mov    %eax,%edi
  40109e:	e8 fd fb ff ff       	callq  400ca0 <srandom@plt>
  4010a3:	e8 18 fd ff ff       	callq  400dc0 <random@plt>
  4010a8:	eb 05                	jmp    4010af <initialize_target+0x7f>
  4010aa:	b8 00 00 00 00       	mov    $0x0,%eax
  4010af:	01 c3                	add    %eax,%ebx
  4010b1:	0f b7 db             	movzwl %bx,%ebx
  4010b4:	8d 04 dd 00 01 00 00 	lea    0x100(,%rbx,8),%eax
  4010bb:	89 c0                	mov    %eax,%eax
  4010bd:	48 89 05 dc 43 20 00 	mov    %rax,0x2043dc(%rip)        # 6054a0 <buf_offset>
  4010c4:	c6 05 7d 50 20 00 72 	movb   $0x72,0x20507d(%rip)        # 606148 <target_prefix>
  4010cb:	83 3d d6 43 20 00 00 	cmpl   $0x0,0x2043d6(%rip)        # 6054a8 <notify>
  4010d2:	0f 84 bb 00 00 00    	je     401193 <initialize_target+0x163>
  4010d8:	83 3d 49 44 20 00 00 	cmpl   $0x0,0x204449(%rip)        # 605528 <is_checker>
  4010df:	0f 85 ae 00 00 00    	jne    401193 <initialize_target+0x163>
  4010e5:	be 00 01 00 00       	mov    $0x100,%esi
  4010ea:	48 89 e7             	mov    %rsp,%rdi
  4010ed:	e8 4e fd ff ff       	callq  400e40 <gethostname@plt>
  4010f2:	85 c0                	test   %eax,%eax
  4010f4:	74 25                	je     40111b <initialize_target+0xeb>
  4010f6:	bf 28 31 40 00       	mov    $0x403128,%edi
  4010fb:	e8 d0 fb ff ff       	callq  400cd0 <puts@plt>
  401100:	bf 08 00 00 00       	mov    $0x8,%edi
  401105:	e8 46 fd ff ff       	callq  400e50 <exit@plt>
  40110a:	48 89 e6             	mov    %rsp,%rsi
  40110d:	e8 6e fb ff ff       	callq  400c80 <strcasecmp@plt>
  401112:	85 c0                	test   %eax,%eax
  401114:	74 21                	je     401137 <initialize_target+0x107>
  401116:	83 c3 01             	add    $0x1,%ebx
  401119:	eb 05                	jmp    401120 <initialize_target+0xf0>
  40111b:	bb 00 00 00 00       	mov    $0x0,%ebx
  401120:	48 63 c3             	movslq %ebx,%rax
  401123:	48 8b 3c c5 80 51 60 	mov    0x605180(,%rax,8),%rdi
  40112a:	00 
  40112b:	48 85 ff             	test   %rdi,%rdi
  40112e:	75 da                	jne    40110a <initialize_target+0xda>
  401130:	b8 00 00 00 00       	mov    $0x0,%eax
  401135:	eb 05                	jmp    40113c <initialize_target+0x10c>
  401137:	b8 01 00 00 00       	mov    $0x1,%eax
  40113c:	85 c0                	test   %eax,%eax
  40113e:	75 1c                	jne    40115c <initialize_target+0x12c>
  401140:	48 89 e2             	mov    %rsp,%rdx
  401143:	be 60 31 40 00       	mov    $0x403160,%esi
  401148:	bf 01 00 00 00       	mov    $0x1,%edi
  40114d:	e8 ae fc ff ff       	callq  400e00 <__printf_chk@plt>
  401152:	bf 08 00 00 00       	mov    $0x8,%edi
  401157:	e8 f4 fc ff ff       	callq  400e50 <exit@plt>
  40115c:	48 8d bc 24 00 01 00 	lea    0x100(%rsp),%rdi
  401163:	00 
  401164:	e8 a0 1b 00 00       	callq  402d09 <init_driver>
  401169:	85 c0                	test   %eax,%eax
  40116b:	79 26                	jns    401193 <initialize_target+0x163>
  40116d:	48 8d 94 24 00 01 00 	lea    0x100(%rsp),%rdx
  401174:	00 
  401175:	be a0 31 40 00       	mov    $0x4031a0,%esi
  40117a:	bf 01 00 00 00       	mov    $0x1,%edi
  40117f:	b8 00 00 00 00       	mov    $0x0,%eax
  401184:	e8 77 fc ff ff       	callq  400e00 <__printf_chk@plt>
  401189:	bf 08 00 00 00       	mov    $0x8,%edi
  40118e:	e8 bd fc ff ff       	callq  400e50 <exit@plt>
  401193:	48 8b 84 24 08 21 00 	mov    0x2108(%rsp),%rax
  40119a:	00 
  40119b:	64 48 33 04 25 28 00 	xor    %fs:0x28,%rax
  4011a2:	00 00 
  4011a4:	74 05                	je     4011ab <initialize_target+0x17b>
  4011a6:	e8 45 fb ff ff       	callq  400cf0 <__stack_chk_fail@plt>
  4011ab:	48 81 c4 18 21 00 00 	add    $0x2118,%rsp
  4011b2:	5b                   	pop    %rbx
  4011b3:	5d                   	pop    %rbp
  4011b4:	c3                   	retq   

00000000004011b5 <main>:
  4011b5:	41 56                	push   %r14
  4011b7:	41 55                	push   %r13
  4011b9:	41 54                	push   %r12
  4011bb:	55                   	push   %rbp
  4011bc:	53                   	push   %rbx
  4011bd:	41 89 fc             	mov    %edi,%r12d
  4011c0:	48 89 f3             	mov    %rsi,%rbx
  4011c3:	be 44 20 40 00       	mov    $0x402044,%esi
  4011c8:	bf 0b 00 00 00       	mov    $0xb,%edi
  4011cd:	e8 8e fb ff ff       	callq  400d60 <signal@plt>
  4011d2:	be f6 1f 40 00       	mov    $0x401ff6,%esi
  4011d7:	bf 07 00 00 00       	mov    $0x7,%edi
  4011dc:	e8 7f fb ff ff       	callq  400d60 <signal@plt>
  4011e1:	be 92 20 40 00       	mov    $0x402092,%esi
  4011e6:	bf 04 00 00 00       	mov    $0x4,%edi
  4011eb:	e8 70 fb ff ff       	callq  400d60 <signal@plt>
  4011f0:	83 3d 31 43 20 00 00 	cmpl   $0x0,0x204331(%rip)        # 605528 <is_checker>
  4011f7:	74 20                	je     401219 <main+0x64>
  4011f9:	be e0 20 40 00       	mov    $0x4020e0,%esi
  4011fe:	bf 0e 00 00 00       	mov    $0xe,%edi
  401203:	e8 58 fb ff ff       	callq  400d60 <signal@plt>
  401208:	bf 05 00 00 00       	mov    $0x5,%edi
  40120d:	e8 0e fb ff ff       	callq  400d20 <alarm@plt>
  401212:	bd 6a 32 40 00       	mov    $0x40326a,%ebp
  401217:	eb 05                	jmp    40121e <main+0x69>
  401219:	bd 65 32 40 00       	mov    $0x403265,%ebp
  40121e:	48 8b 05 9b 42 20 00 	mov    0x20429b(%rip),%rax        # 6054c0 <stdin@@GLIBC_2.2.5>
  401225:	48 89 05 e4 42 20 00 	mov    %rax,0x2042e4(%rip)        # 605510 <infile>
  40122c:	41 bd 00 00 00 00    	mov    $0x0,%r13d
  401232:	41 be 00 00 00 00    	mov    $0x0,%r14d
  401238:	e9 c6 00 00 00       	jmpq   401303 <main+0x14e>
  40123d:	83 e8 61             	sub    $0x61,%eax
  401240:	3c 10                	cmp    $0x10,%al
  401242:	0f 87 9c 00 00 00    	ja     4012e4 <main+0x12f>
  401248:	0f b6 c0             	movzbl %al,%eax
  40124b:	ff 24 c5 b0 32 40 00 	jmpq   *0x4032b0(,%rax,8)
  401252:	48 8b 3b             	mov    (%rbx),%rdi
  401255:	e8 4c fd ff ff       	callq  400fa6 <usage>
  40125a:	be 1d 35 40 00       	mov    $0x40351d,%esi
  40125f:	48 8b 3d 62 42 20 00 	mov    0x204262(%rip),%rdi        # 6054c8 <optarg@@GLIBC_2.2.5>
  401266:	e8 a5 fb ff ff       	callq  400e10 <fopen@plt>
  40126b:	48 89 05 9e 42 20 00 	mov    %rax,0x20429e(%rip)        # 605510 <infile>
  401272:	48 85 c0             	test   %rax,%rax
  401275:	0f 85 88 00 00 00    	jne    401303 <main+0x14e>
  40127b:	48 8b 0d 46 42 20 00 	mov    0x204246(%rip),%rcx        # 6054c8 <optarg@@GLIBC_2.2.5>
  401282:	ba 72 32 40 00       	mov    $0x403272,%edx
  401287:	be 01 00 00 00       	mov    $0x1,%esi
  40128c:	48 8b 3d 4d 42 20 00 	mov    0x20424d(%rip),%rdi        # 6054e0 <stderr@@GLIBC_2.2.5>
  401293:	e8 d8 fb ff ff       	callq  400e70 <__fprintf_chk@plt>
  401298:	b8 01 00 00 00       	mov    $0x1,%eax
  40129d:	e9 e4 00 00 00       	jmpq   401386 <main+0x1d1>
  4012a2:	ba 10 00 00 00       	mov    $0x10,%edx
  4012a7:	be 00 00 00 00       	mov    $0x0,%esi
  4012ac:	48 8b 3d 15 42 20 00 	mov    0x204215(%rip),%rdi        # 6054c8 <optarg@@GLIBC_2.2.5>
  4012b3:	e8 78 fb ff ff       	callq  400e30 <strtoul@plt>
  4012b8:	41 89 c6             	mov    %eax,%r14d
  4012bb:	eb 46                	jmp    401303 <main+0x14e>
  4012bd:	ba 0a 00 00 00       	mov    $0xa,%edx
  4012c2:	be 00 00 00 00       	mov    $0x0,%esi
  4012c7:	48 8b 3d fa 41 20 00 	mov    0x2041fa(%rip),%rdi        # 6054c8 <optarg@@GLIBC_2.2.5>
  4012ce:	e8 bd fa ff ff       	callq  400d90 <strtol@plt>
  4012d3:	41 89 c5             	mov    %eax,%r13d
  4012d6:	eb 2b                	jmp    401303 <main+0x14e>
  4012d8:	c7 05 c6 41 20 00 00 	movl   $0x0,0x2041c6(%rip)        # 6054a8 <notify>
  4012df:	00 00 00 
  4012e2:	eb 1f                	jmp    401303 <main+0x14e>
  4012e4:	0f be d2             	movsbl %dl,%edx
  4012e7:	be 8f 32 40 00       	mov    $0x40328f,%esi
  4012ec:	bf 01 00 00 00       	mov    $0x1,%edi
  4012f1:	b8 00 00 00 00       	mov    $0x0,%eax
  4012f6:	e8 05 fb ff ff       	callq  400e00 <__printf_chk@plt>
  4012fb:	48 8b 3b             	mov    (%rbx),%rdi
  4012fe:	e8 a3 fc ff ff       	callq  400fa6 <usage>
  401303:	48 89 ea             	mov    %rbp,%rdx
  401306:	48 89 de             	mov    %rbx,%rsi
  401309:	44 89 e7             	mov    %r12d,%edi
  40130c:	e8 0f fb ff ff       	callq  400e20 <getopt@plt>
  401311:	89 c2                	mov    %eax,%edx
  401313:	3c ff                	cmp    $0xff,%al
  401315:	0f 85 22 ff ff ff    	jne    40123d <main+0x88>
  40131b:	be 01 00 00 00       	mov    $0x1,%esi
  401320:	44 89 ef             	mov    %r13d,%edi
  401323:	e8 08 fd ff ff       	callq  401030 <initialize_target>
  401328:	83 3d f9 41 20 00 00 	cmpl   $0x0,0x2041f9(%rip)        # 605528 <is_checker>
  40132f:	74 2a                	je     40135b <main+0x1a6>
  401331:	44 3b 35 e8 41 20 00 	cmp    0x2041e8(%rip),%r14d        # 605520 <authkey>
  401338:	74 21                	je     40135b <main+0x1a6>
  40133a:	44 89 f2             	mov    %r14d,%edx
  40133d:	be c8 31 40 00       	mov    $0x4031c8,%esi
  401342:	bf 01 00 00 00       	mov    $0x1,%edi
  401347:	b8 00 00 00 00       	mov    $0x0,%eax
  40134c:	e8 af fa ff ff       	callq  400e00 <__printf_chk@plt>
  401351:	b8 00 00 00 00       	mov    $0x0,%eax
  401356:	e8 37 09 00 00       	callq  401c92 <check_fail>
  40135b:	8b 15 c3 41 20 00    	mov    0x2041c3(%rip),%edx        # 605524 <cookie>
  401361:	be a2 32 40 00       	mov    $0x4032a2,%esi
  401366:	bf 01 00 00 00       	mov    $0x1,%edi
  40136b:	b8 00 00 00 00       	mov    $0x0,%eax
  401370:	e8 8b fa ff ff       	callq  400e00 <__printf_chk@plt>
  401375:	48 8b 3d 24 41 20 00 	mov    0x204124(%rip),%rdi        # 6054a0 <buf_offset>
  40137c:	e8 b2 0d 00 00       	callq  402133 <launch>
  401381:	b8 00 00 00 00       	mov    $0x0,%eax
  401386:	5b                   	pop    %rbx
  401387:	5d                   	pop    %rbp
  401388:	41 5c                	pop    %r12
  40138a:	41 5d                	pop    %r13
  40138c:	41 5e                	pop    %r14
  40138e:	c3                   	retq   

000000000040138f <scramble>:
  40138f:	48 83 ec 38          	sub    $0x38,%rsp
  401393:	64 48 8b 04 25 28 00 	mov    %fs:0x28,%rax
  40139a:	00 00 
  40139c:	48 89 44 24 28       	mov    %rax,0x28(%rsp)
  4013a1:	31 c0                	xor    %eax,%eax
  4013a3:	eb 10                	jmp    4013b5 <scramble+0x26>
  4013a5:	69 d0 64 2d 00 00    	imul   $0x2d64,%eax,%edx
  4013ab:	01 fa                	add    %edi,%edx
  4013ad:	89 c1                	mov    %eax,%ecx
  4013af:	89 14 8c             	mov    %edx,(%rsp,%rcx,4)
  4013b2:	83 c0 01             	add    $0x1,%eax
  4013b5:	83 f8 09             	cmp    $0x9,%eax
  4013b8:	76 eb                	jbe    4013a5 <scramble+0x16>
  4013ba:	8b 44 24 0c          	mov    0xc(%rsp),%eax
  4013be:	69 c0 7a dd 00 00    	imul   $0xdd7a,%eax,%eax
  4013c4:	89 44 24 0c          	mov    %eax,0xc(%rsp)
  4013c8:	8b 44 24 04          	mov    0x4(%rsp),%eax
  4013cc:	6b c0 74             	imul   $0x74,%eax,%eax
  4013cf:	89 44 24 04          	mov    %eax,0x4(%rsp)
  4013d3:	8b 44 24 1c          	mov    0x1c(%rsp),%eax
  4013d7:	69 c0 e0 18 00 00    	imul   $0x18e0,%eax,%eax
  4013dd:	89 44 24 1c          	mov    %eax,0x1c(%rsp)
  4013e1:	8b 44 24 1c          	mov    0x1c(%rsp),%eax
  4013e5:	69 c0 e3 a8 00 00    	imul   $0xa8e3,%eax,%eax
  4013eb:	89 44 24 1c          	mov    %eax,0x1c(%rsp)
  4013ef:	8b 44 24 10          	mov    0x10(%rsp),%eax
  4013f3:	69 c0 d7 aa 00 00    	imul   $0xaad7,%eax,%eax
  4013f9:	89 44 24 10          	mov    %eax,0x10(%rsp)
  4013fd:	8b 44 24 04          	mov    0x4(%rsp),%eax
  401401:	69 c0 7c 63 00 00    	imul   $0x637c,%eax,%eax
  401407:	89 44 24 04          	mov    %eax,0x4(%rsp)
  40140b:	8b 44 24 04          	mov    0x4(%rsp),%eax
  40140f:	69 c0 1a f8 00 00    	imul   $0xf81a,%eax,%eax
  401415:	89 44 24 04          	mov    %eax,0x4(%rsp)
  401419:	8b 44 24 10          	mov    0x10(%rsp),%eax
  40141d:	69 c0 05 35 00 00    	imul   $0x3505,%eax,%eax
  401423:	89 44 24 10          	mov    %eax,0x10(%rsp)
  401427:	8b 44 24 20          	mov    0x20(%rsp),%eax
  40142b:	69 c0 ef 2e 00 00    	imul   $0x2eef,%eax,%eax
  401431:	89 44 24 20          	mov    %eax,0x20(%rsp)
  401435:	8b 44 24 04          	mov    0x4(%rsp),%eax
  401439:	69 c0 07 ef 00 00    	imul   $0xef07,%eax,%eax
  40143f:	89 44 24 04          	mov    %eax,0x4(%rsp)
  401443:	8b 44 24 10          	mov    0x10(%rsp),%eax
  401447:	69 c0 4d 39 00 00    	imul   $0x394d,%eax,%eax
  40144d:	89 44 24 10          	mov    %eax,0x10(%rsp)
  401451:	8b 04 24             	mov    (%rsp),%eax
  401454:	69 c0 4d ad 00 00    	imul   $0xad4d,%eax,%eax
  40145a:	89 04 24             	mov    %eax,(%rsp)
  40145d:	8b 44 24 18          	mov    0x18(%rsp),%eax
  401461:	69 c0 9b 19 00 00    	imul   $0x199b,%eax,%eax
  401467:	89 44 24 18          	mov    %eax,0x18(%rsp)
  40146b:	8b 44 24 08          	mov    0x8(%rsp),%eax
  40146f:	69 c0 b2 b1 00 00    	imul   $0xb1b2,%eax,%eax
  401475:	89 44 24 08          	mov    %eax,0x8(%rsp)
  401479:	8b 44 24 0c          	mov    0xc(%rsp),%eax
  40147d:	69 c0 92 cd 00 00    	imul   $0xcd92,%eax,%eax
  401483:	89 44 24 0c          	mov    %eax,0xc(%rsp)
  401487:	8b 44 24 18          	mov    0x18(%rsp),%eax
  40148b:	69 c0 3f e5 00 00    	imul   $0xe53f,%eax,%eax
  401491:	89 44 24 18          	mov    %eax,0x18(%rsp)
  401495:	8b 44 24 04          	mov    0x4(%rsp),%eax
  401499:	69 c0 bb dd 00 00    	imul   $0xddbb,%eax,%eax
  40149f:	89 44 24 04          	mov    %eax,0x4(%rsp)
  4014a3:	8b 44 24 1c          	mov    0x1c(%rsp),%eax
  4014a7:	69 c0 fd 87 00 00    	imul   $0x87fd,%eax,%eax
  4014ad:	89 44 24 1c          	mov    %eax,0x1c(%rsp)
  4014b1:	8b 04 24             	mov    (%rsp),%eax
  4014b4:	69 c0 6e cd 00 00    	imul   $0xcd6e,%eax,%eax
  4014ba:	89 04 24             	mov    %eax,(%rsp)
  4014bd:	8b 44 24 1c          	mov    0x1c(%rsp),%eax
  4014c1:	69 c0 1e f6 00 00    	imul   $0xf61e,%eax,%eax
  4014c7:	89 44 24 1c          	mov    %eax,0x1c(%rsp)
  4014cb:	8b 04 24             	mov    (%rsp),%eax
  4014ce:	69 c0 08 d2 00 00    	imul   $0xd208,%eax,%eax
  4014d4:	89 04 24             	mov    %eax,(%rsp)
  4014d7:	8b 44 24 20          	mov    0x20(%rsp),%eax
  4014db:	69 c0 17 5e 00 00    	imul   $0x5e17,%eax,%eax
  4014e1:	89 44 24 20          	mov    %eax,0x20(%rsp)
  4014e5:	8b 44 24 18          	mov    0x18(%rsp),%eax
  4014e9:	69 c0 d7 e4 00 00    	imul   $0xe4d7,%eax,%eax
  4014ef:	89 44 24 18          	mov    %eax,0x18(%rsp)
  4014f3:	8b 44 24 14          	mov    0x14(%rsp),%eax
  4014f7:	69 c0 80 15 00 00    	imul   $0x1580,%eax,%eax
  4014fd:	89 44 24 14          	mov    %eax,0x14(%rsp)
  401501:	8b 44 24 08          	mov    0x8(%rsp),%eax
  401505:	69 c0 fc ef 00 00    	imul   $0xeffc,%eax,%eax
  40150b:	89 44 24 08          	mov    %eax,0x8(%rsp)
  40150f:	8b 44 24 14          	mov    0x14(%rsp),%eax
  401513:	69 c0 44 6f 00 00    	imul   $0x6f44,%eax,%eax
  401519:	89 44 24 14          	mov    %eax,0x14(%rsp)
  40151d:	8b 44 24 14          	mov    0x14(%rsp),%eax
  401521:	69 c0 2e 03 00 00    	imul   $0x32e,%eax,%eax
  401527:	89 44 24 14          	mov    %eax,0x14(%rsp)
  40152b:	8b 04 24             	mov    (%rsp),%eax
  40152e:	69 c0 98 36 00 00    	imul   $0x3698,%eax,%eax
  401534:	89 04 24             	mov    %eax,(%rsp)
  401537:	8b 44 24 10          	mov    0x10(%rsp),%eax
  40153b:	69 c0 37 ff 00 00    	imul   $0xff37,%eax,%eax
  401541:	89 44 24 10          	mov    %eax,0x10(%rsp)
  401545:	8b 44 24 14          	mov    0x14(%rsp),%eax
  401549:	69 c0 a4 d4 00 00    	imul   $0xd4a4,%eax,%eax
  40154f:	89 44 24 14          	mov    %eax,0x14(%rsp)
  401553:	8b 44 24 24          	mov    0x24(%rsp),%eax
  401557:	69 c0 d3 24 00 00    	imul   $0x24d3,%eax,%eax
  40155d:	89 44 24 24          	mov    %eax,0x24(%rsp)
  401561:	8b 44 24 18          	mov    0x18(%rsp),%eax
  401565:	69 c0 d5 77 00 00    	imul   $0x77d5,%eax,%eax
  40156b:	89 44 24 18          	mov    %eax,0x18(%rsp)
  40156f:	8b 44 24 20          	mov    0x20(%rsp),%eax
  401573:	69 c0 97 9f 00 00    	imul   $0x9f97,%eax,%eax
  401579:	89 44 24 20          	mov    %eax,0x20(%rsp)
  40157d:	8b 44 24 04          	mov    0x4(%rsp),%eax
  401581:	69 c0 29 f9 00 00    	imul   $0xf929,%eax,%eax
  401587:	89 44 24 04          	mov    %eax,0x4(%rsp)
  40158b:	8b 44 24 08          	mov    0x8(%rsp),%eax
  40158f:	69 c0 b2 30 00 00    	imul   $0x30b2,%eax,%eax
  401595:	89 44 24 08          	mov    %eax,0x8(%rsp)
  401599:	8b 44 24 1c          	mov    0x1c(%rsp),%eax
  40159d:	69 c0 4b e5 00 00    	imul   $0xe54b,%eax,%eax
  4015a3:	89 44 24 1c          	mov    %eax,0x1c(%rsp)
  4015a7:	8b 44 24 08          	mov    0x8(%rsp),%eax
  4015ab:	69 c0 e2 48 00 00    	imul   $0x48e2,%eax,%eax
  4015b1:	89 44 24 08          	mov    %eax,0x8(%rsp)
  4015b5:	8b 44 24 20          	mov    0x20(%rsp),%eax
  4015b9:	69 c0 dd cc 00 00    	imul   $0xccdd,%eax,%eax
  4015bf:	89 44 24 20          	mov    %eax,0x20(%rsp)
  4015c3:	8b 04 24             	mov    (%rsp),%eax
  4015c6:	69 c0 7e d6 00 00    	imul   $0xd67e,%eax,%eax
  4015cc:	89 04 24             	mov    %eax,(%rsp)
  4015cf:	8b 44 24 18          	mov    0x18(%rsp),%eax
  4015d3:	69 c0 81 41 00 00    	imul   $0x4181,%eax,%eax
  4015d9:	89 44 24 18          	mov    %eax,0x18(%rsp)
  4015dd:	8b 44 24 0c          	mov    0xc(%rsp),%eax
  4015e1:	69 c0 e6 e6 00 00    	imul   $0xe6e6,%eax,%eax
  4015e7:	89 44 24 0c          	mov    %eax,0xc(%rsp)
  4015eb:	8b 04 24             	mov    (%rsp),%eax
  4015ee:	69 c0 c3 ef 00 00    	imul   $0xefc3,%eax,%eax
  4015f4:	89 04 24             	mov    %eax,(%rsp)
  4015f7:	8b 44 24 24          	mov    0x24(%rsp),%eax
  4015fb:	69 c0 57 cd 00 00    	imul   $0xcd57,%eax,%eax
  401601:	89 44 24 24          	mov    %eax,0x24(%rsp)
  401605:	8b 44 24 18          	mov    0x18(%rsp),%eax
  401609:	69 c0 de 06 00 00    	imul   $0x6de,%eax,%eax
  40160f:	89 44 24 18          	mov    %eax,0x18(%rsp)
  401613:	8b 44 24 14          	mov    0x14(%rsp),%eax
  401617:	69 c0 a5 0e 00 00    	imul   $0xea5,%eax,%eax
  40161d:	89 44 24 14          	mov    %eax,0x14(%rsp)
  401621:	8b 44 24 0c          	mov    0xc(%rsp),%eax
  401625:	69 c0 58 99 00 00    	imul   $0x9958,%eax,%eax
  40162b:	89 44 24 0c          	mov    %eax,0xc(%rsp)
  40162f:	8b 44 24 14          	mov    0x14(%rsp),%eax
  401633:	69 c0 66 95 00 00    	imul   $0x9566,%eax,%eax
  401639:	89 44 24 14          	mov    %eax,0x14(%rsp)
  40163d:	8b 44 24 24          	mov    0x24(%rsp),%eax
  401641:	69 c0 07 36 00 00    	imul   $0x3607,%eax,%eax
  401647:	89 44 24 24          	mov    %eax,0x24(%rsp)
  40164b:	8b 44 24 1c          	mov    0x1c(%rsp),%eax
  40164f:	89 c2                	mov    %eax,%edx
  401651:	c1 e2 08             	shl    $0x8,%edx
  401654:	c1 e0 0c             	shl    $0xc,%eax
  401657:	01 d0                	add    %edx,%eax
  401659:	89 44 24 1c          	mov    %eax,0x1c(%rsp)
  40165d:	8b 44 24 18          	mov    0x18(%rsp),%eax
  401661:	69 c0 03 a2 00 00    	imul   $0xa203,%eax,%eax
  401667:	89 44 24 18          	mov    %eax,0x18(%rsp)
  40166b:	8b 44 24 08          	mov    0x8(%rsp),%eax
  40166f:	69 c0 79 1e 00 00    	imul   $0x1e79,%eax,%eax
  401675:	89 44 24 08          	mov    %eax,0x8(%rsp)
  401679:	8b 44 24 14          	mov    0x14(%rsp),%eax
  40167d:	69 c0 6d 44 00 00    	imul   $0x446d,%eax,%eax
  401683:	89 44 24 14          	mov    %eax,0x14(%rsp)
  401687:	8b 44 24 24          	mov    0x24(%rsp),%eax
  40168b:	69 c0 b0 ca 00 00    	imul   $0xcab0,%eax,%eax
  401691:	89 44 24 24          	mov    %eax,0x24(%rsp)
  401695:	8b 44 24 10          	mov    0x10(%rsp),%eax
  401699:	69 c0 15 95 00 00    	imul   $0x9515,%eax,%eax
  40169f:	89 44 24 10          	mov    %eax,0x10(%rsp)
  4016a3:	8b 44 24 08          	mov    0x8(%rsp),%eax
  4016a7:	69 c0 a9 f3 00 00    	imul   $0xf3a9,%eax,%eax
  4016ad:	89 44 24 08          	mov    %eax,0x8(%rsp)
  4016b1:	8b 44 24 0c          	mov    0xc(%rsp),%eax
  4016b5:	69 c0 a8 67 00 00    	imul   $0x67a8,%eax,%eax
  4016bb:	89 44 24 0c          	mov    %eax,0xc(%rsp)
  4016bf:	8b 44 24 04          	mov    0x4(%rsp),%eax
  4016c3:	69 c0 5c 87 00 00    	imul   $0x875c,%eax,%eax
  4016c9:	89 44 24 04          	mov    %eax,0x4(%rsp)
  4016cd:	8b 44 24 04          	mov    0x4(%rsp),%eax
  4016d1:	69 c0 a3 c4 00 00    	imul   $0xc4a3,%eax,%eax
  4016d7:	89 44 24 04          	mov    %eax,0x4(%rsp)
  4016db:	8b 44 24 18          	mov    0x18(%rsp),%eax
  4016df:	69 c0 c7 7d 00 00    	imul   $0x7dc7,%eax,%eax
  4016e5:	89 44 24 18          	mov    %eax,0x18(%rsp)
  4016e9:	8b 44 24 20          	mov    0x20(%rsp),%eax
  4016ed:	69 c0 41 21 00 00    	imul   $0x2141,%eax,%eax
  4016f3:	89 44 24 20          	mov    %eax,0x20(%rsp)
  4016f7:	8b 44 24 0c          	mov    0xc(%rsp),%eax
  4016fb:	69 c0 05 a7 00 00    	imul   $0xa705,%eax,%eax
  401701:	89 44 24 0c          	mov    %eax,0xc(%rsp)
  401705:	8b 44 24 24          	mov    0x24(%rsp),%eax
  401709:	69 c0 e5 bf 00 00    	imul   $0xbfe5,%eax,%eax
  40170f:	89 44 24 24          	mov    %eax,0x24(%rsp)
  401713:	8b 44 24 0c          	mov    0xc(%rsp),%eax
  401717:	69 c0 c7 cb 00 00    	imul   $0xcbc7,%eax,%eax
  40171d:	89 44 24 0c          	mov    %eax,0xc(%rsp)
  401721:	8b 44 24 14          	mov    0x14(%rsp),%eax
  401725:	69 c0 69 71 00 00    	imul   $0x7169,%eax,%eax
  40172b:	89 44 24 14          	mov    %eax,0x14(%rsp)
  40172f:	8b 44 24 08          	mov    0x8(%rsp),%eax
  401733:	69 c0 1e 25 00 00    	imul   $0x251e,%eax,%eax
  401739:	89 44 24 08          	mov    %eax,0x8(%rsp)
  40173d:	8b 44 24 0c          	mov    0xc(%rsp),%eax
  401741:	69 c0 79 1e 00 00    	imul   $0x1e79,%eax,%eax
  401747:	89 44 24 0c          	mov    %eax,0xc(%rsp)
  40174b:	8b 44 24 1c          	mov    0x1c(%rsp),%eax
  40174f:	69 c0 ba 9a 00 00    	imul   $0x9aba,%eax,%eax
  401755:	89 44 24 1c          	mov    %eax,0x1c(%rsp)
  401759:	8b 04 24             	mov    (%rsp),%eax
  40175c:	69 c0 f2 aa 00 00    	imul   $0xaaf2,%eax,%eax
  401762:	89 04 24             	mov    %eax,(%rsp)
  401765:	8b 44 24 20          	mov    0x20(%rsp),%eax
  401769:	69 c0 32 74 00 00    	imul   $0x7432,%eax,%eax
  40176f:	89 44 24 20          	mov    %eax,0x20(%rsp)
  401773:	8b 44 24 1c          	mov    0x1c(%rsp),%eax
  401777:	69 c0 98 06 00 00    	imul   $0x698,%eax,%eax
  40177d:	89 44 24 1c          	mov    %eax,0x1c(%rsp)
  401781:	8b 44 24 18          	mov    0x18(%rsp),%eax
  401785:	69 c0 9e 16 00 00    	imul   $0x169e,%eax,%eax
  40178b:	89 44 24 18          	mov    %eax,0x18(%rsp)
  40178f:	8b 04 24             	mov    (%rsp),%eax
  401792:	69 c0 6a 42 00 00    	imul   $0x426a,%eax,%eax
  401798:	89 04 24             	mov    %eax,(%rsp)
  40179b:	8b 44 24 14          	mov    0x14(%rsp),%eax
  40179f:	69 c0 ab c5 00 00    	imul   $0xc5ab,%eax,%eax
  4017a5:	89 44 24 14          	mov    %eax,0x14(%rsp)
  4017a9:	8b 44 24 08          	mov    0x8(%rsp),%eax
  4017ad:	69 c0 ad f2 00 00    	imul   $0xf2ad,%eax,%eax
  4017b3:	89 44 24 08          	mov    %eax,0x8(%rsp)
  4017b7:	8b 44 24 04          	mov    0x4(%rsp),%eax
  4017bb:	69 c0 8f d2 00 00    	imul   $0xd28f,%eax,%eax
  4017c1:	89 44 24 04          	mov    %eax,0x4(%rsp)
  4017c5:	8b 44 24 18          	mov    0x18(%rsp),%eax
  4017c9:	69 c0 df cf 00 00    	imul   $0xcfdf,%eax,%eax
  4017cf:	89 44 24 18          	mov    %eax,0x18(%rsp)
  4017d3:	8b 44 24 10          	mov    0x10(%rsp),%eax
  4017d7:	69 c0 88 ce 00 00    	imul   $0xce88,%eax,%eax
  4017dd:	89 44 24 10          	mov    %eax,0x10(%rsp)
  4017e1:	8b 44 24 14          	mov    0x14(%rsp),%eax
  4017e5:	69 c0 00 b6 00 00    	imul   $0xb600,%eax,%eax
  4017eb:	89 44 24 14          	mov    %eax,0x14(%rsp)
  4017ef:	8b 44 24 24          	mov    0x24(%rsp),%eax
  4017f3:	69 c0 b1 85 00 00    	imul   $0x85b1,%eax,%eax
  4017f9:	89 44 24 24          	mov    %eax,0x24(%rsp)
  4017fd:	8b 44 24 04          	mov    0x4(%rsp),%eax
  401801:	69 c0 16 77 00 00    	imul   $0x7716,%eax,%eax
  401807:	89 44 24 04          	mov    %eax,0x4(%rsp)
  40180b:	8b 44 24 18          	mov    0x18(%rsp),%eax
  40180f:	69 c0 d5 3a 00 00    	imul   $0x3ad5,%eax,%eax
  401815:	89 44 24 18          	mov    %eax,0x18(%rsp)
  401819:	8b 44 24 24          	mov    0x24(%rsp),%eax
  40181d:	69 c0 66 ee 00 00    	imul   $0xee66,%eax,%eax
  401823:	89 44 24 24          	mov    %eax,0x24(%rsp)
  401827:	8b 44 24 24          	mov    0x24(%rsp),%eax
  40182b:	69 c0 77 f8 00 00    	imul   $0xf877,%eax,%eax
  401831:	89 44 24 24          	mov    %eax,0x24(%rsp)
  401835:	8b 44 24 04          	mov    0x4(%rsp),%eax
  401839:	69 c0 f9 3a 00 00    	imul   $0x3af9,%eax,%eax
  40183f:	89 44 24 04          	mov    %eax,0x4(%rsp)
  401843:	8b 44 24 14          	mov    0x14(%rsp),%eax
  401847:	69 c0 61 d9 00 00    	imul   $0xd961,%eax,%eax
  40184d:	89 44 24 14          	mov    %eax,0x14(%rsp)
  401851:	8b 44 24 24          	mov    0x24(%rsp),%eax
  401855:	69 c0 84 d4 00 00    	imul   $0xd484,%eax,%eax
  40185b:	89 44 24 24          	mov    %eax,0x24(%rsp)
  40185f:	8b 04 24             	mov    (%rsp),%eax
  401862:	69 c0 d1 af 00 00    	imul   $0xafd1,%eax,%eax
  401868:	89 04 24             	mov    %eax,(%rsp)
  40186b:	8b 44 24 08          	mov    0x8(%rsp),%eax
  40186f:	69 c0 fa 8d 00 00    	imul   $0x8dfa,%eax,%eax
  401875:	89 44 24 08          	mov    %eax,0x8(%rsp)
  401879:	8b 44 24 0c          	mov    0xc(%rsp),%eax
  40187d:	69 c0 fb 1d 00 00    	imul   $0x1dfb,%eax,%eax
  401883:	89 44 24 0c          	mov    %eax,0xc(%rsp)
  401887:	8b 44 24 24          	mov    0x24(%rsp),%eax
  40188b:	69 c0 ef b8 00 00    	imul   $0xb8ef,%eax,%eax
  401891:	89 44 24 24          	mov    %eax,0x24(%rsp)
  401895:	8b 04 24             	mov    (%rsp),%eax
  401898:	69 c0 96 94 00 00    	imul   $0x9496,%eax,%eax
  40189e:	89 04 24             	mov    %eax,(%rsp)
  4018a1:	8b 44 24 04          	mov    0x4(%rsp),%eax
  4018a5:	69 c0 1f 6a 00 00    	imul   $0x6a1f,%eax,%eax
  4018ab:	89 44 24 04          	mov    %eax,0x4(%rsp)
  4018af:	8b 44 24 14          	mov    0x14(%rsp),%eax
  4018b3:	69 c0 92 18 00 00    	imul   $0x1892,%eax,%eax
  4018b9:	89 44 24 14          	mov    %eax,0x14(%rsp)
  4018bd:	8b 44 24 18          	mov    0x18(%rsp),%eax
  4018c1:	69 c0 6e fd 00 00    	imul   $0xfd6e,%eax,%eax
  4018c7:	89 44 24 18          	mov    %eax,0x18(%rsp)
  4018cb:	8b 44 24 24          	mov    0x24(%rsp),%eax
  4018cf:	69 c0 88 47 00 00    	imul   $0x4788,%eax,%eax
  4018d5:	89 44 24 24          	mov    %eax,0x24(%rsp)
  4018d9:	8b 44 24 24          	mov    0x24(%rsp),%eax
  4018dd:	69 c0 13 49 00 00    	imul   $0x4913,%eax,%eax
  4018e3:	89 44 24 24          	mov    %eax,0x24(%rsp)
  4018e7:	ba 00 00 00 00       	mov    $0x0,%edx
  4018ec:	b8 00 00 00 00       	mov    $0x0,%eax
  4018f1:	eb 0a                	jmp    4018fd <scramble+0x56e>
  4018f3:	89 d1                	mov    %edx,%ecx
  4018f5:	8b 0c 8c             	mov    (%rsp,%rcx,4),%ecx
  4018f8:	01 c8                	add    %ecx,%eax
  4018fa:	83 c2 01             	add    $0x1,%edx
  4018fd:	83 fa 09             	cmp    $0x9,%edx
  401900:	76 f1                	jbe    4018f3 <scramble+0x564>
  401902:	48 8b 74 24 28       	mov    0x28(%rsp),%rsi
  401907:	64 48 33 34 25 28 00 	xor    %fs:0x28,%rsi
  40190e:	00 00 
  401910:	74 05                	je     401917 <scramble+0x588>
  401912:	e8 d9 f3 ff ff       	callq  400cf0 <__stack_chk_fail@plt>
  401917:	48 83 c4 38          	add    $0x38,%rsp
  40191b:	c3                   	retq   

000000000040191c <getbuf>:
  40191c:	48 83 ec 18          	sub    $0x18,%rsp
  401920:	48 89 e7             	mov    %rsp,%rdi
  401923:	e8 9f 03 00 00       	callq  401cc7 <Gets>
  401928:	b8 01 00 00 00       	mov    $0x1,%eax
  40192d:	48 83 c4 18          	add    $0x18,%rsp
  401931:	c3                   	retq   

0000000000401932 <touch1>:
  401932:	48 83 ec 08          	sub    $0x8,%rsp
  401936:	c7 05 dc 3b 20 00 01 	movl   $0x1,0x203bdc(%rip)        # 60551c <vlevel>
  40193d:	00 00 00 
  401940:	bf 71 33 40 00       	mov    $0x403371,%edi
  401945:	e8 86 f3 ff ff       	callq  400cd0 <puts@plt>
  40194a:	bf 01 00 00 00       	mov    $0x1,%edi
  40194f:	e8 b8 05 00 00       	callq  401f0c <validate>
  401954:	bf 00 00 00 00       	mov    $0x0,%edi
  401959:	e8 f2 f4 ff ff       	callq  400e50 <exit@plt>

000000000040195e <touch2>:
  40195e:	48 83 ec 08          	sub    $0x8,%rsp
  401962:	89 fa                	mov    %edi,%edx
  401964:	c7 05 ae 3b 20 00 02 	movl   $0x2,0x203bae(%rip)        # 60551c <vlevel>
  40196b:	00 00 00 
  40196e:	39 3d b0 3b 20 00    	cmp    %edi,0x203bb0(%rip)        # 605524 <cookie>
  401974:	75 20                	jne    401996 <touch2+0x38>
  401976:	be 98 33 40 00       	mov    $0x403398,%esi
  40197b:	bf 01 00 00 00       	mov    $0x1,%edi
  401980:	b8 00 00 00 00       	mov    $0x0,%eax
  401985:	e8 76 f4 ff ff       	callq  400e00 <__printf_chk@plt>
  40198a:	bf 02 00 00 00       	mov    $0x2,%edi
  40198f:	e8 78 05 00 00       	callq  401f0c <validate>
  401994:	eb 1e                	jmp    4019b4 <touch2+0x56>
  401996:	be c0 33 40 00       	mov    $0x4033c0,%esi
  40199b:	bf 01 00 00 00       	mov    $0x1,%edi
  4019a0:	b8 00 00 00 00       	mov    $0x0,%eax
  4019a5:	e8 56 f4 ff ff       	callq  400e00 <__printf_chk@plt>
  4019aa:	bf 02 00 00 00       	mov    $0x2,%edi
  4019af:	e8 1a 06 00 00       	callq  401fce <fail>
  4019b4:	bf 00 00 00 00       	mov    $0x0,%edi
  4019b9:	e8 92 f4 ff ff       	callq  400e50 <exit@plt>

00000000004019be <hexmatch>:
  4019be:	41 54                	push   %r12
  4019c0:	55                   	push   %rbp
  4019c1:	53                   	push   %rbx
  4019c2:	48 83 c4 80          	add    $0xffffffffffffff80,%rsp
  4019c6:	89 fd                	mov    %edi,%ebp
  4019c8:	48 89 f3             	mov    %rsi,%rbx
  4019cb:	64 48 8b 04 25 28 00 	mov    %fs:0x28,%rax
  4019d2:	00 00 
  4019d4:	48 89 44 24 78       	mov    %rax,0x78(%rsp)
  4019d9:	31 c0                	xor    %eax,%eax
  4019db:	e8 e0 f3 ff ff       	callq  400dc0 <random@plt>
  4019e0:	48 89 c1             	mov    %rax,%rcx
  4019e3:	48 ba 0b d7 a3 70 3d 	movabs $0xa3d70a3d70a3d70b,%rdx
  4019ea:	0a d7 a3 
  4019ed:	48 f7 ea             	imul   %rdx
  4019f0:	48 01 ca             	add    %rcx,%rdx
  4019f3:	48 c1 fa 06          	sar    $0x6,%rdx
  4019f7:	48 89 c8             	mov    %rcx,%rax
  4019fa:	48 c1 f8 3f          	sar    $0x3f,%rax
  4019fe:	48 29 c2             	sub    %rax,%rdx
  401a01:	48 8d 04 92          	lea    (%rdx,%rdx,4),%rax
  401a05:	48 8d 14 80          	lea    (%rax,%rax,4),%rdx
  401a09:	48 8d 04 95 00 00 00 	lea    0x0(,%rdx,4),%rax
  401a10:	00 
  401a11:	48 29 c1             	sub    %rax,%rcx
  401a14:	4c 8d 24 0c          	lea    (%rsp,%rcx,1),%r12
  401a18:	41 89 e8             	mov    %ebp,%r8d
  401a1b:	b9 8e 33 40 00       	mov    $0x40338e,%ecx
  401a20:	48 c7 c2 ff ff ff ff 	mov    $0xffffffffffffffff,%rdx
  401a27:	be 01 00 00 00       	mov    $0x1,%esi
  401a2c:	4c 89 e7             	mov    %r12,%rdi
  401a2f:	b8 00 00 00 00       	mov    $0x0,%eax
  401a34:	e8 47 f4 ff ff       	callq  400e80 <__sprintf_chk@plt>
  401a39:	ba 09 00 00 00       	mov    $0x9,%edx
  401a3e:	4c 89 e6             	mov    %r12,%rsi
  401a41:	48 89 df             	mov    %rbx,%rdi
  401a44:	e8 67 f2 ff ff       	callq  400cb0 <strncmp@plt>
  401a49:	85 c0                	test   %eax,%eax
  401a4b:	0f 94 c0             	sete   %al
  401a4e:	48 8b 5c 24 78       	mov    0x78(%rsp),%rbx
  401a53:	64 48 33 1c 25 28 00 	xor    %fs:0x28,%rbx
  401a5a:	00 00 
  401a5c:	74 05                	je     401a63 <hexmatch+0xa5>
  401a5e:	e8 8d f2 ff ff       	callq  400cf0 <__stack_chk_fail@plt>
  401a63:	0f b6 c0             	movzbl %al,%eax
  401a66:	48 83 ec 80          	sub    $0xffffffffffffff80,%rsp
  401a6a:	5b                   	pop    %rbx
  401a6b:	5d                   	pop    %rbp
  401a6c:	41 5c                	pop    %r12
  401a6e:	c3                   	retq   

0000000000401a6f <touch3>:
  401a6f:	53                   	push   %rbx
  401a70:	48 89 fb             	mov    %rdi,%rbx
  401a73:	c7 05 9f 3a 20 00 03 	movl   $0x3,0x203a9f(%rip)        # 60551c <vlevel>
  401a7a:	00 00 00 
  401a7d:	48 89 fe             	mov    %rdi,%rsi
  401a80:	8b 3d 9e 3a 20 00    	mov    0x203a9e(%rip),%edi        # 605524 <cookie>
  401a86:	e8 33 ff ff ff       	callq  4019be <hexmatch>
  401a8b:	85 c0                	test   %eax,%eax
  401a8d:	74 23                	je     401ab2 <touch3+0x43>
  401a8f:	48 89 da             	mov    %rbx,%rdx
  401a92:	be e8 33 40 00       	mov    $0x4033e8,%esi
  401a97:	bf 01 00 00 00       	mov    $0x1,%edi
  401a9c:	b8 00 00 00 00       	mov    $0x0,%eax
  401aa1:	e8 5a f3 ff ff       	callq  400e00 <__printf_chk@plt>
  401aa6:	bf 03 00 00 00       	mov    $0x3,%edi
  401aab:	e8 5c 04 00 00       	callq  401f0c <validate>
  401ab0:	eb 21                	jmp    401ad3 <touch3+0x64>
  401ab2:	48 89 da             	mov    %rbx,%rdx
  401ab5:	be 10 34 40 00       	mov    $0x403410,%esi
  401aba:	bf 01 00 00 00       	mov    $0x1,%edi
  401abf:	b8 00 00 00 00       	mov    $0x0,%eax
  401ac4:	e8 37 f3 ff ff       	callq  400e00 <__printf_chk@plt>
  401ac9:	bf 03 00 00 00       	mov    $0x3,%edi
  401ace:	e8 fb 04 00 00       	callq  401fce <fail>
  401ad3:	bf 00 00 00 00       	mov    $0x0,%edi
  401ad8:	e8 73 f3 ff ff       	callq  400e50 <exit@plt>

0000000000401add <test>:
  401add:	48 83 ec 08          	sub    $0x8,%rsp
  401ae1:	b8 00 00 00 00       	mov    $0x0,%eax
  401ae6:	e8 31 fe ff ff       	callq  40191c <getbuf>
  401aeb:	89 c2                	mov    %eax,%edx
  401aed:	be 38 34 40 00       	mov    $0x403438,%esi
  401af2:	bf 01 00 00 00       	mov    $0x1,%edi
  401af7:	b8 00 00 00 00       	mov    $0x0,%eax
  401afc:	e8 ff f2 ff ff       	callq  400e00 <__printf_chk@plt>
  401b01:	48 83 c4 08          	add    $0x8,%rsp
  401b05:	c3                   	retq   

0000000000401b06 <start_farm>:
  401b06:	b8 01 00 00 00       	mov    $0x1,%eax
  401b0b:	c3                   	retq   

0000000000401b0c <getval_436>:
  401b0c:	b8 3d 45 58 92       	mov    $0x9258453d,%eax
  401b11:	c3                   	retq   

0000000000401b12 <setval_147>:
  401b12:	c7 07 5f bf 58 90    	movl   $0x9058bf5f,(%rdi)
  401b18:	c3                   	retq   

0000000000401b19 <addval_189>:
  401b19:	8d 87 48 89 c7 90    	lea    -0x6f3876b8(%rdi),%eax
  401b1f:	c3                   	retq   

0000000000401b20 <setval_350>:
  401b20:	c7 07 2f 5c 2f 58    	movl   $0x582f5c2f,(%rdi)
  401b26:	c3                   	retq   

0000000000401b27 <getval_281>:
  401b27:	b8 48 89 c7 c7       	mov    $0xc7c78948,%eax
  401b2c:	c3                   	retq   

0000000000401b2d <setval_323>:
  401b2d:	c7 07 48 89 c7 c3    	movl   $0xc3c78948,(%rdi)
  401b33:	c3                   	retq   

0000000000401b34 <setval_348>:
  401b34:	c7 07 48 88 c7 c3    	movl   $0xc3c78848,(%rdi)
  401b3a:	c3                   	retq   

0000000000401b3b <setval_109>:
  401b3b:	c7 07 78 90 90 90    	movl   $0x90909078,(%rdi)
  401b41:	c3                   	retq   

0000000000401b42 <mid_farm>:
  401b42:	b8 01 00 00 00       	mov    $0x1,%eax
  401b47:	c3                   	retq   

0000000000401b48 <add_xy>:
  401b48:	48 8d 04 37          	lea    (%rdi,%rsi,1),%rax
  401b4c:	c3                   	retq   

0000000000401b4d <addval_477>:
  401b4d:	8d 87 48 89 e0 90    	lea    -0x6f1f76b8(%rdi),%eax
  401b53:	c3                   	retq   

0000000000401b54 <addval_239>:
  401b54:	8d 87 89 c1 a4 db    	lea    -0x245b3e77(%rdi),%eax
  401b5a:	c3                   	retq   

0000000000401b5b <addval_152>:
  401b5b:	8d 87 48 89 e0 c3    	lea    -0x3c1f76b8(%rdi),%eax
  401b61:	c3                   	retq   

0000000000401b62 <addval_499>:
  401b62:	8d 87 89 d6 48 d2    	lea    -0x2db72977(%rdi),%eax
  401b68:	c3                   	retq   

0000000000401b69 <addval_302>:
  401b69:	8d 87 8d ca 38 c0    	lea    -0x3fc73573(%rdi),%eax
  401b6f:	c3                   	retq   

0000000000401b70 <addval_279>:
  401b70:	8d 87 89 c1 38 d2    	lea    -0x2dc73e77(%rdi),%eax
  401b76:	c3                   	retq   

0000000000401b77 <setval_251>:
  401b77:	c7 07 8d d6 08 c9    	movl   $0xc908d68d,(%rdi)
  401b7d:	c3                   	retq   

0000000000401b7e <getval_126>:
  401b7e:	b8 89 ca 94 d2       	mov    $0xd294ca89,%eax
  401b83:	c3                   	retq   

0000000000401b84 <setval_297>:
  401b84:	c7 07 81 d6 20 c9    	movl   $0xc920d681,(%rdi)
  401b8a:	c3                   	retq   

0000000000401b8b <getval_115>:
  401b8b:	b8 4c 89 e0 c3       	mov    $0xc3e0894c,%eax
  401b90:	c3                   	retq   

0000000000401b91 <setval_269>:
  401b91:	c7 07 89 c1 28 d2    	movl   $0xd228c189,(%rdi)
  401b97:	c3                   	retq   

0000000000401b98 <addval_137>:
  401b98:	8d 87 48 89 e0 94    	lea    -0x6b1f76b8(%rdi),%eax
  401b9e:	c3                   	retq   

0000000000401b9f <getval_219>:
  401b9f:	b8 89 d6 20 db       	mov    $0xdb20d689,%eax
  401ba4:	c3                   	retq   

0000000000401ba5 <getval_199>:
  401ba5:	b8 48 c9 e0 c3       	mov    $0xc3e0c948,%eax
  401baa:	c3                   	retq   

0000000000401bab <addval_387>:
  401bab:	8d 87 89 ca 00 c9    	lea    -0x36ff3577(%rdi),%eax
  401bb1:	c3                   	retq   

0000000000401bb2 <setval_116>:
  401bb2:	c7 07 89 c1 18 db    	movl   $0xdb18c189,(%rdi)
  401bb8:	c3                   	retq   

0000000000401bb9 <addval_382>:
  401bb9:	8d 87 84 89 c1 92    	lea    -0x6d3e767c(%rdi),%eax
  401bbf:	c3                   	retq   

0000000000401bc0 <getval_498>:
  401bc0:	b8 89 ca 08 c9       	mov    $0xc908ca89,%eax
  401bc5:	c3                   	retq   

0000000000401bc6 <getval_171>:
  401bc6:	b8 48 89 e0 c1       	mov    $0xc1e08948,%eax
  401bcb:	c3                   	retq   

0000000000401bcc <getval_270>:
  401bcc:	b8 09 ca 38 db       	mov    $0xdb38ca09,%eax
  401bd1:	c3                   	retq   

0000000000401bd2 <setval_449>:
  401bd2:	c7 07 40 89 e0 c3    	movl   $0xc3e08940,(%rdi)
  401bd8:	c3                   	retq   

0000000000401bd9 <addval_427>:
  401bd9:	8d 87 89 d6 c3 24    	lea    0x24c3d689(%rdi),%eax
  401bdf:	c3                   	retq   

0000000000401be0 <getval_184>:
  401be0:	b8 89 c1 90 c2       	mov    $0xc290c189,%eax
  401be5:	c3                   	retq   

0000000000401be6 <getval_262>:
  401be6:	b8 8d c1 20 db       	mov    $0xdb20c18d,%eax
  401beb:	c3                   	retq   

0000000000401bec <getval_280>:
  401bec:	b8 89 d6 a4 c0       	mov    $0xc0a4d689,%eax
  401bf1:	c3                   	retq   

0000000000401bf2 <setval_336>:
  401bf2:	c7 07 89 c1 08 db    	movl   $0xdb08c189,(%rdi)
  401bf8:	c3                   	retq   

0000000000401bf9 <getval_408>:
  401bf9:	b8 89 ca 30 c0       	mov    $0xc030ca89,%eax
  401bfe:	c3                   	retq   

0000000000401bff <getval_351>:
  401bff:	b8 48 99 e0 90       	mov    $0x90e09948,%eax
  401c04:	c3                   	retq   

0000000000401c05 <setval_230>:
  401c05:	c7 07 89 ca 30 c0    	movl   $0xc030ca89,(%rdi)
  401c0b:	c3                   	retq   

0000000000401c0c <setval_243>:
  401c0c:	c7 07 89 ca 20 db    	movl   $0xdb20ca89,(%rdi)
  401c12:	c3                   	retq   

0000000000401c13 <addval_314>:
  401c13:	8d 87 99 d6 08 d2    	lea    -0x2df72967(%rdi),%eax
  401c19:	c3                   	retq   

0000000000401c1a <setval_493>:
  401c1a:	c7 07 a9 d6 38 d2    	movl   $0xd238d6a9,(%rdi)
  401c20:	c3                   	retq   

0000000000401c21 <end_farm>:
  401c21:	b8 01 00 00 00       	mov    $0x1,%eax
  401c26:	c3                   	retq   

0000000000401c27 <save_char>:
  401c27:	8b 05 17 45 20 00    	mov    0x204517(%rip),%eax        # 606144 <gets_cnt>
  401c2d:	3d ff 03 00 00       	cmp    $0x3ff,%eax
  401c32:	7f 49                	jg     401c7d <save_char+0x56>
  401c34:	8d 14 40             	lea    (%rax,%rax,2),%edx
  401c37:	89 f9                	mov    %edi,%ecx
  401c39:	c0 e9 04             	shr    $0x4,%cl
  401c3c:	83 e1 0f             	and    $0xf,%ecx
  401c3f:	0f b6 b1 60 37 40 00 	movzbl 0x403760(%rcx),%esi
  401c46:	48 63 ca             	movslq %edx,%rcx
  401c49:	40 88 b1 40 55 60 00 	mov    %sil,0x605540(%rcx)
  401c50:	8d 4a 01             	lea    0x1(%rdx),%ecx
  401c53:	83 e7 0f             	and    $0xf,%edi
  401c56:	0f b6 b7 60 37 40 00 	movzbl 0x403760(%rdi),%esi
  401c5d:	48 63 c9             	movslq %ecx,%rcx
  401c60:	40 88 b1 40 55 60 00 	mov    %sil,0x605540(%rcx)
  401c67:	83 c2 02             	add    $0x2,%edx
  401c6a:	48 63 d2             	movslq %edx,%rdx
  401c6d:	c6 82 40 55 60 00 20 	movb   $0x20,0x605540(%rdx)
  401c74:	83 c0 01             	add    $0x1,%eax
  401c77:	89 05 c7 44 20 00    	mov    %eax,0x2044c7(%rip)        # 606144 <gets_cnt>
  401c7d:	f3 c3                	repz retq 

0000000000401c7f <save_term>:
  401c7f:	8b 05 bf 44 20 00    	mov    0x2044bf(%rip),%eax        # 606144 <gets_cnt>
  401c85:	8d 04 40             	lea    (%rax,%rax,2),%eax
  401c88:	48 98                	cltq   
  401c8a:	c6 80 40 55 60 00 00 	movb   $0x0,0x605540(%rax)
  401c91:	c3                   	retq   

0000000000401c92 <check_fail>:
  401c92:	48 83 ec 08          	sub    $0x8,%rsp
  401c96:	0f be 15 ab 44 20 00 	movsbl 0x2044ab(%rip),%edx        # 606148 <target_prefix>
  401c9d:	41 b8 40 55 60 00    	mov    $0x605540,%r8d
  401ca3:	8b 0d 6f 38 20 00    	mov    0x20386f(%rip),%ecx        # 605518 <check_level>
  401ca9:	be 5b 34 40 00       	mov    $0x40345b,%esi
  401cae:	bf 01 00 00 00       	mov    $0x1,%edi
  401cb3:	b8 00 00 00 00       	mov    $0x0,%eax
  401cb8:	e8 43 f1 ff ff       	callq  400e00 <__printf_chk@plt>
  401cbd:	bf 01 00 00 00       	mov    $0x1,%edi
  401cc2:	e8 89 f1 ff ff       	callq  400e50 <exit@plt>

0000000000401cc7 <Gets>:
  401cc7:	41 54                	push   %r12
  401cc9:	55                   	push   %rbp
  401cca:	53                   	push   %rbx
  401ccb:	49 89 fc             	mov    %rdi,%r12
  401cce:	c7 05 6c 44 20 00 00 	movl   $0x0,0x20446c(%rip)        # 606144 <gets_cnt>
  401cd5:	00 00 00 
  401cd8:	48 89 fb             	mov    %rdi,%rbx
  401cdb:	eb 11                	jmp    401cee <Gets+0x27>
  401cdd:	48 8d 6b 01          	lea    0x1(%rbx),%rbp
  401ce1:	88 03                	mov    %al,(%rbx)
  401ce3:	0f b6 f8             	movzbl %al,%edi
  401ce6:	e8 3c ff ff ff       	callq  401c27 <save_char>
  401ceb:	48 89 eb             	mov    %rbp,%rbx
  401cee:	48 8b 3d 1b 38 20 00 	mov    0x20381b(%rip),%rdi        # 605510 <infile>
  401cf5:	e8 d6 f0 ff ff       	callq  400dd0 <_IO_getc@plt>
  401cfa:	83 f8 ff             	cmp    $0xffffffff,%eax
  401cfd:	74 05                	je     401d04 <Gets+0x3d>
  401cff:	83 f8 0a             	cmp    $0xa,%eax
  401d02:	75 d9                	jne    401cdd <Gets+0x16>
  401d04:	c6 03 00             	movb   $0x0,(%rbx)
  401d07:	b8 00 00 00 00       	mov    $0x0,%eax
  401d0c:	e8 6e ff ff ff       	callq  401c7f <save_term>
  401d11:	4c 89 e0             	mov    %r12,%rax
  401d14:	5b                   	pop    %rbx
  401d15:	5d                   	pop    %rbp
  401d16:	41 5c                	pop    %r12
  401d18:	c3                   	retq   

0000000000401d19 <notify_server>:
  401d19:	53                   	push   %rbx
  401d1a:	48 81 ec 10 40 00 00 	sub    $0x4010,%rsp
  401d21:	64 48 8b 04 25 28 00 	mov    %fs:0x28,%rax
  401d28:	00 00 
  401d2a:	48 89 84 24 08 40 00 	mov    %rax,0x4008(%rsp)
  401d31:	00 
  401d32:	31 c0                	xor    %eax,%eax
  401d34:	83 3d ed 37 20 00 00 	cmpl   $0x0,0x2037ed(%rip)        # 605528 <is_checker>
  401d3b:	0f 85 aa 01 00 00    	jne    401eeb <notify_server+0x1d2>
  401d41:	89 fb                	mov    %edi,%ebx
  401d43:	8b 05 fb 43 20 00    	mov    0x2043fb(%rip),%eax        # 606144 <gets_cnt>
  401d49:	83 c0 64             	add    $0x64,%eax
  401d4c:	3d 00 20 00 00       	cmp    $0x2000,%eax
  401d51:	7e 1e                	jle    401d71 <notify_server+0x58>
  401d53:	be 90 35 40 00       	mov    $0x403590,%esi
  401d58:	bf 01 00 00 00       	mov    $0x1,%edi
  401d5d:	b8 00 00 00 00       	mov    $0x0,%eax
  401d62:	e8 99 f0 ff ff       	callq  400e00 <__printf_chk@plt>
  401d67:	bf 01 00 00 00       	mov    $0x1,%edi
  401d6c:	e8 df f0 ff ff       	callq  400e50 <exit@plt>
  401d71:	0f be 05 d0 43 20 00 	movsbl 0x2043d0(%rip),%eax        # 606148 <target_prefix>
  401d78:	83 3d 29 37 20 00 00 	cmpl   $0x0,0x203729(%rip)        # 6054a8 <notify>
  401d7f:	74 08                	je     401d89 <notify_server+0x70>
  401d81:	8b 15 99 37 20 00    	mov    0x203799(%rip),%edx        # 605520 <authkey>
  401d87:	eb 05                	jmp    401d8e <notify_server+0x75>
  401d89:	ba ff ff ff ff       	mov    $0xffffffff,%edx
  401d8e:	85 db                	test   %ebx,%ebx
  401d90:	74 08                	je     401d9a <notify_server+0x81>
  401d92:	41 b9 71 34 40 00    	mov    $0x403471,%r9d
  401d98:	eb 06                	jmp    401da0 <notify_server+0x87>
  401d9a:	41 b9 76 34 40 00    	mov    $0x403476,%r9d
  401da0:	68 40 55 60 00       	pushq  $0x605540
  401da5:	56                   	push   %rsi
  401da6:	50                   	push   %rax
  401da7:	52                   	push   %rdx
  401da8:	44 8b 05 b9 33 20 00 	mov    0x2033b9(%rip),%r8d        # 605168 <target_id>
  401daf:	b9 7b 34 40 00       	mov    $0x40347b,%ecx
  401db4:	ba 00 20 00 00       	mov    $0x2000,%edx
  401db9:	be 01 00 00 00       	mov    $0x1,%esi
  401dbe:	48 8d 7c 24 20       	lea    0x20(%rsp),%rdi
  401dc3:	b8 00 00 00 00       	mov    $0x0,%eax
  401dc8:	e8 b3 f0 ff ff       	callq  400e80 <__sprintf_chk@plt>
  401dcd:	48 83 c4 20          	add    $0x20,%rsp
  401dd1:	83 3d d0 36 20 00 00 	cmpl   $0x0,0x2036d0(%rip)        # 6054a8 <notify>
  401dd8:	0f 84 81 00 00 00    	je     401e5f <notify_server+0x146>
  401dde:	85 db                	test   %ebx,%ebx
  401de0:	74 6e                	je     401e50 <notify_server+0x137>
  401de2:	4c 8d 8c 24 00 20 00 	lea    0x2000(%rsp),%r9
  401de9:	00 
  401dea:	41 b8 00 00 00 00    	mov    $0x0,%r8d
  401df0:	48 89 e1             	mov    %rsp,%rcx
  401df3:	48 8b 15 76 33 20 00 	mov    0x203376(%rip),%rdx        # 605170 <lab>
  401dfa:	48 8b 35 77 33 20 00 	mov    0x203377(%rip),%rsi        # 605178 <course>
  401e01:	48 8b 3d 58 33 20 00 	mov    0x203358(%rip),%rdi        # 605160 <user_id>
  401e08:	e8 ef 10 00 00       	callq  402efc <driver_post>
  401e0d:	85 c0                	test   %eax,%eax
  401e0f:	79 26                	jns    401e37 <notify_server+0x11e>
  401e11:	48 8d 94 24 00 20 00 	lea    0x2000(%rsp),%rdx
  401e18:	00 
  401e19:	be 97 34 40 00       	mov    $0x403497,%esi
  401e1e:	bf 01 00 00 00       	mov    $0x1,%edi
  401e23:	b8 00 00 00 00       	mov    $0x0,%eax
  401e28:	e8 d3 ef ff ff       	callq  400e00 <__printf_chk@plt>
  401e2d:	bf 01 00 00 00       	mov    $0x1,%edi
  401e32:	e8 19 f0 ff ff       	callq  400e50 <exit@plt>
  401e37:	bf c0 35 40 00       	mov    $0x4035c0,%edi
  401e3c:	e8 8f ee ff ff       	callq  400cd0 <puts@plt>
  401e41:	bf a3 34 40 00       	mov    $0x4034a3,%edi
  401e46:	e8 85 ee ff ff       	callq  400cd0 <puts@plt>
  401e4b:	e9 9b 00 00 00       	jmpq   401eeb <notify_server+0x1d2>
  401e50:	bf ad 34 40 00       	mov    $0x4034ad,%edi
  401e55:	e8 76 ee ff ff       	callq  400cd0 <puts@plt>
  401e5a:	e9 8c 00 00 00       	jmpq   401eeb <notify_server+0x1d2>
  401e5f:	85 db                	test   %ebx,%ebx
  401e61:	74 07                	je     401e6a <notify_server+0x151>
  401e63:	ba 71 34 40 00       	mov    $0x403471,%edx
  401e68:	eb 05                	jmp    401e6f <notify_server+0x156>
  401e6a:	ba 76 34 40 00       	mov    $0x403476,%edx
  401e6f:	be f8 35 40 00       	mov    $0x4035f8,%esi
  401e74:	bf 01 00 00 00       	mov    $0x1,%edi
  401e79:	b8 00 00 00 00       	mov    $0x0,%eax
  401e7e:	e8 7d ef ff ff       	callq  400e00 <__printf_chk@plt>
  401e83:	48 8b 15 d6 32 20 00 	mov    0x2032d6(%rip),%rdx        # 605160 <user_id>
  401e8a:	be b4 34 40 00       	mov    $0x4034b4,%esi
  401e8f:	bf 01 00 00 00       	mov    $0x1,%edi
  401e94:	b8 00 00 00 00       	mov    $0x0,%eax
  401e99:	e8 62 ef ff ff       	callq  400e00 <__printf_chk@plt>
  401e9e:	48 8b 15 d3 32 20 00 	mov    0x2032d3(%rip),%rdx        # 605178 <course>
  401ea5:	be c1 34 40 00       	mov    $0x4034c1,%esi
  401eaa:	bf 01 00 00 00       	mov    $0x1,%edi
  401eaf:	b8 00 00 00 00       	mov    $0x0,%eax
  401eb4:	e8 47 ef ff ff       	callq  400e00 <__printf_chk@plt>
  401eb9:	48 8b 15 b0 32 20 00 	mov    0x2032b0(%rip),%rdx        # 605170 <lab>
  401ec0:	be cd 34 40 00       	mov    $0x4034cd,%esi
  401ec5:	bf 01 00 00 00       	mov    $0x1,%edi
  401eca:	b8 00 00 00 00       	mov    $0x0,%eax
  401ecf:	e8 2c ef ff ff       	callq  400e00 <__printf_chk@plt>
  401ed4:	48 89 e2             	mov    %rsp,%rdx
  401ed7:	be d6 34 40 00       	mov    $0x4034d6,%esi
  401edc:	bf 01 00 00 00       	mov    $0x1,%edi
  401ee1:	b8 00 00 00 00       	mov    $0x0,%eax
  401ee6:	e8 15 ef ff ff       	callq  400e00 <__printf_chk@plt>
  401eeb:	48 8b 84 24 08 40 00 	mov    0x4008(%rsp),%rax
  401ef2:	00 
  401ef3:	64 48 33 04 25 28 00 	xor    %fs:0x28,%rax
  401efa:	00 00 
  401efc:	74 05                	je     401f03 <notify_server+0x1ea>
  401efe:	e8 ed ed ff ff       	callq  400cf0 <__stack_chk_fail@plt>
  401f03:	48 81 c4 10 40 00 00 	add    $0x4010,%rsp
  401f0a:	5b                   	pop    %rbx
  401f0b:	c3                   	retq   

0000000000401f0c <validate>:
  401f0c:	53                   	push   %rbx
  401f0d:	89 fb                	mov    %edi,%ebx
  401f0f:	83 3d 12 36 20 00 00 	cmpl   $0x0,0x203612(%rip)        # 605528 <is_checker>
  401f16:	74 6b                	je     401f83 <validate+0x77>
  401f18:	39 3d fe 35 20 00    	cmp    %edi,0x2035fe(%rip)        # 60551c <vlevel>
  401f1e:	74 14                	je     401f34 <validate+0x28>
  401f20:	bf e2 34 40 00       	mov    $0x4034e2,%edi
  401f25:	e8 a6 ed ff ff       	callq  400cd0 <puts@plt>
  401f2a:	b8 00 00 00 00       	mov    $0x0,%eax
  401f2f:	e8 5e fd ff ff       	callq  401c92 <check_fail>
  401f34:	8b 15 de 35 20 00    	mov    0x2035de(%rip),%edx        # 605518 <check_level>
  401f3a:	39 d7                	cmp    %edx,%edi
  401f3c:	74 20                	je     401f5e <validate+0x52>
  401f3e:	89 f9                	mov    %edi,%ecx
  401f40:	be 20 36 40 00       	mov    $0x403620,%esi
  401f45:	bf 01 00 00 00       	mov    $0x1,%edi
  401f4a:	b8 00 00 00 00       	mov    $0x0,%eax
  401f4f:	e8 ac ee ff ff       	callq  400e00 <__printf_chk@plt>
  401f54:	b8 00 00 00 00       	mov    $0x0,%eax
  401f59:	e8 34 fd ff ff       	callq  401c92 <check_fail>
  401f5e:	0f be 15 e3 41 20 00 	movsbl 0x2041e3(%rip),%edx        # 606148 <target_prefix>
  401f65:	41 b8 40 55 60 00    	mov    $0x605540,%r8d
  401f6b:	89 f9                	mov    %edi,%ecx
  401f6d:	be 00 35 40 00       	mov    $0x403500,%esi
  401f72:	bf 01 00 00 00       	mov    $0x1,%edi
  401f77:	b8 00 00 00 00       	mov    $0x0,%eax
  401f7c:	e8 7f ee ff ff       	callq  400e00 <__printf_chk@plt>
  401f81:	eb 49                	jmp    401fcc <validate+0xc0>
  401f83:	3b 3d 93 35 20 00    	cmp    0x203593(%rip),%edi        # 60551c <vlevel>
  401f89:	74 18                	je     401fa3 <validate+0x97>
  401f8b:	bf e2 34 40 00       	mov    $0x4034e2,%edi
  401f90:	e8 3b ed ff ff       	callq  400cd0 <puts@plt>
  401f95:	89 de                	mov    %ebx,%esi
  401f97:	bf 00 00 00 00       	mov    $0x0,%edi
  401f9c:	e8 78 fd ff ff       	callq  401d19 <notify_server>
  401fa1:	eb 29                	jmp    401fcc <validate+0xc0>
  401fa3:	0f be 0d 9e 41 20 00 	movsbl 0x20419e(%rip),%ecx        # 606148 <target_prefix>
  401faa:	89 fa                	mov    %edi,%edx
  401fac:	be 48 36 40 00       	mov    $0x403648,%esi
  401fb1:	bf 01 00 00 00       	mov    $0x1,%edi
  401fb6:	b8 00 00 00 00       	mov    $0x0,%eax
  401fbb:	e8 40 ee ff ff       	callq  400e00 <__printf_chk@plt>
  401fc0:	89 de                	mov    %ebx,%esi
  401fc2:	bf 01 00 00 00       	mov    $0x1,%edi
  401fc7:	e8 4d fd ff ff       	callq  401d19 <notify_server>
  401fcc:	5b                   	pop    %rbx
  401fcd:	c3                   	retq   

0000000000401fce <fail>:
  401fce:	48 83 ec 08          	sub    $0x8,%rsp
  401fd2:	83 3d 4f 35 20 00 00 	cmpl   $0x0,0x20354f(%rip)        # 605528 <is_checker>
  401fd9:	74 0a                	je     401fe5 <fail+0x17>
  401fdb:	b8 00 00 00 00       	mov    $0x0,%eax
  401fe0:	e8 ad fc ff ff       	callq  401c92 <check_fail>
  401fe5:	89 fe                	mov    %edi,%esi
  401fe7:	bf 00 00 00 00       	mov    $0x0,%edi
  401fec:	e8 28 fd ff ff       	callq  401d19 <notify_server>
  401ff1:	48 83 c4 08          	add    $0x8,%rsp
  401ff5:	c3                   	retq   

0000000000401ff6 <bushandler>:
  401ff6:	48 83 ec 08          	sub    $0x8,%rsp
  401ffa:	83 3d 27 35 20 00 00 	cmpl   $0x0,0x203527(%rip)        # 605528 <is_checker>
  402001:	74 14                	je     402017 <bushandler+0x21>
  402003:	bf 15 35 40 00       	mov    $0x403515,%edi
  402008:	e8 c3 ec ff ff       	callq  400cd0 <puts@plt>
  40200d:	b8 00 00 00 00       	mov    $0x0,%eax
  402012:	e8 7b fc ff ff       	callq  401c92 <check_fail>
  402017:	bf 80 36 40 00       	mov    $0x403680,%edi
  40201c:	e8 af ec ff ff       	callq  400cd0 <puts@plt>
  402021:	bf 1f 35 40 00       	mov    $0x40351f,%edi
  402026:	e8 a5 ec ff ff       	callq  400cd0 <puts@plt>
  40202b:	be 00 00 00 00       	mov    $0x0,%esi
  402030:	bf 00 00 00 00       	mov    $0x0,%edi
  402035:	e8 df fc ff ff       	callq  401d19 <notify_server>
  40203a:	bf 01 00 00 00       	mov    $0x1,%edi
  40203f:	e8 0c ee ff ff       	callq  400e50 <exit@plt>

0000000000402044 <seghandler>:
  402044:	48 83 ec 08          	sub    $0x8,%rsp
  402048:	83 3d d9 34 20 00 00 	cmpl   $0x0,0x2034d9(%rip)        # 605528 <is_checker>
  40204f:	74 14                	je     402065 <seghandler+0x21>
  402051:	bf 35 35 40 00       	mov    $0x403535,%edi
  402056:	e8 75 ec ff ff       	callq  400cd0 <puts@plt>
  40205b:	b8 00 00 00 00       	mov    $0x0,%eax
  402060:	e8 2d fc ff ff       	callq  401c92 <check_fail>
  402065:	bf a0 36 40 00       	mov    $0x4036a0,%edi
  40206a:	e8 61 ec ff ff       	callq  400cd0 <puts@plt>
  40206f:	bf 1f 35 40 00       	mov    $0x40351f,%edi
  402074:	e8 57 ec ff ff       	callq  400cd0 <puts@plt>
  402079:	be 00 00 00 00       	mov    $0x0,%esi
  40207e:	bf 00 00 00 00       	mov    $0x0,%edi
  402083:	e8 91 fc ff ff       	callq  401d19 <notify_server>
  402088:	bf 01 00 00 00       	mov    $0x1,%edi
  40208d:	e8 be ed ff ff       	callq  400e50 <exit@plt>

0000000000402092 <illegalhandler>:
  402092:	48 83 ec 08          	sub    $0x8,%rsp
  402096:	83 3d 8b 34 20 00 00 	cmpl   $0x0,0x20348b(%rip)        # 605528 <is_checker>
  40209d:	74 14                	je     4020b3 <illegalhandler+0x21>
  40209f:	bf 48 35 40 00       	mov    $0x403548,%edi
  4020a4:	e8 27 ec ff ff       	callq  400cd0 <puts@plt>
  4020a9:	b8 00 00 00 00       	mov    $0x0,%eax
  4020ae:	e8 df fb ff ff       	callq  401c92 <check_fail>
  4020b3:	bf c8 36 40 00       	mov    $0x4036c8,%edi
  4020b8:	e8 13 ec ff ff       	callq  400cd0 <puts@plt>
  4020bd:	bf 1f 35 40 00       	mov    $0x40351f,%edi
  4020c2:	e8 09 ec ff ff       	callq  400cd0 <puts@plt>
  4020c7:	be 00 00 00 00       	mov    $0x0,%esi
  4020cc:	bf 00 00 00 00       	mov    $0x0,%edi
  4020d1:	e8 43 fc ff ff       	callq  401d19 <notify_server>
  4020d6:	bf 01 00 00 00       	mov    $0x1,%edi
  4020db:	e8 70 ed ff ff       	callq  400e50 <exit@plt>

00000000004020e0 <sigalrmhandler>:
  4020e0:	48 83 ec 08          	sub    $0x8,%rsp
  4020e4:	83 3d 3d 34 20 00 00 	cmpl   $0x0,0x20343d(%rip)        # 605528 <is_checker>
  4020eb:	74 14                	je     402101 <sigalrmhandler+0x21>
  4020ed:	bf 5c 35 40 00       	mov    $0x40355c,%edi
  4020f2:	e8 d9 eb ff ff       	callq  400cd0 <puts@plt>
  4020f7:	b8 00 00 00 00       	mov    $0x0,%eax
  4020fc:	e8 91 fb ff ff       	callq  401c92 <check_fail>
  402101:	ba 05 00 00 00       	mov    $0x5,%edx
  402106:	be f8 36 40 00       	mov    $0x4036f8,%esi
  40210b:	bf 01 00 00 00       	mov    $0x1,%edi
  402110:	b8 00 00 00 00       	mov    $0x0,%eax
  402115:	e8 e6 ec ff ff       	callq  400e00 <__printf_chk@plt>
  40211a:	be 00 00 00 00       	mov    $0x0,%esi
  40211f:	bf 00 00 00 00       	mov    $0x0,%edi
  402124:	e8 f0 fb ff ff       	callq  401d19 <notify_server>
  402129:	bf 01 00 00 00       	mov    $0x1,%edi
  40212e:	e8 1d ed ff ff       	callq  400e50 <exit@plt>

0000000000402133 <launch>:
  402133:	55                   	push   %rbp
  402134:	48 89 e5             	mov    %rsp,%rbp
  402137:	48 83 ec 10          	sub    $0x10,%rsp
  40213b:	48 89 fa             	mov    %rdi,%rdx
  40213e:	64 48 8b 04 25 28 00 	mov    %fs:0x28,%rax
  402145:	00 00 
  402147:	48 89 45 f8          	mov    %rax,-0x8(%rbp)
  40214b:	31 c0                	xor    %eax,%eax
  40214d:	48 8d 47 1e          	lea    0x1e(%rdi),%rax
  402151:	48 83 e0 f0          	and    $0xfffffffffffffff0,%rax
  402155:	48 29 c4             	sub    %rax,%rsp
  402158:	48 8d 7c 24 0f       	lea    0xf(%rsp),%rdi
  40215d:	48 83 e7 f0          	and    $0xfffffffffffffff0,%rdi
  402161:	be f4 00 00 00       	mov    $0xf4,%esi
  402166:	e8 a5 eb ff ff       	callq  400d10 <memset@plt>
  40216b:	48 8b 05 4e 33 20 00 	mov    0x20334e(%rip),%rax        # 6054c0 <stdin@@GLIBC_2.2.5>
  402172:	48 39 05 97 33 20 00 	cmp    %rax,0x203397(%rip)        # 605510 <infile>
  402179:	75 14                	jne    40218f <launch+0x5c>
  40217b:	be 64 35 40 00       	mov    $0x403564,%esi
  402180:	bf 01 00 00 00       	mov    $0x1,%edi
  402185:	b8 00 00 00 00       	mov    $0x0,%eax
  40218a:	e8 71 ec ff ff       	callq  400e00 <__printf_chk@plt>
  40218f:	c7 05 83 33 20 00 00 	movl   $0x0,0x203383(%rip)        # 60551c <vlevel>
  402196:	00 00 00 
  402199:	b8 00 00 00 00       	mov    $0x0,%eax
  40219e:	e8 3a f9 ff ff       	callq  401add <test>
  4021a3:	83 3d 7e 33 20 00 00 	cmpl   $0x0,0x20337e(%rip)        # 605528 <is_checker>
  4021aa:	74 14                	je     4021c0 <launch+0x8d>
  4021ac:	bf 71 35 40 00       	mov    $0x403571,%edi
  4021b1:	e8 1a eb ff ff       	callq  400cd0 <puts@plt>
  4021b6:	b8 00 00 00 00       	mov    $0x0,%eax
  4021bb:	e8 d2 fa ff ff       	callq  401c92 <check_fail>
  4021c0:	bf 7c 35 40 00       	mov    $0x40357c,%edi
  4021c5:	e8 06 eb ff ff       	callq  400cd0 <puts@plt>
  4021ca:	48 8b 45 f8          	mov    -0x8(%rbp),%rax
  4021ce:	64 48 33 04 25 28 00 	xor    %fs:0x28,%rax
  4021d5:	00 00 
  4021d7:	74 05                	je     4021de <launch+0xab>
  4021d9:	e8 12 eb ff ff       	callq  400cf0 <__stack_chk_fail@plt>
  4021de:	c9                   	leaveq 
  4021df:	c3                   	retq   

00000000004021e0 <stable_launch>:
  4021e0:	53                   	push   %rbx
  4021e1:	48 89 3d 20 33 20 00 	mov    %rdi,0x203320(%rip)        # 605508 <global_offset>
  4021e8:	41 b9 00 00 00 00    	mov    $0x0,%r9d
  4021ee:	41 b8 00 00 00 00    	mov    $0x0,%r8d
  4021f4:	b9 32 01 00 00       	mov    $0x132,%ecx
  4021f9:	ba 07 00 00 00       	mov    $0x7,%edx
  4021fe:	be 00 00 10 00       	mov    $0x100000,%esi
  402203:	bf 00 60 58 55       	mov    $0x55586000,%edi
  402208:	e8 f3 ea ff ff       	callq  400d00 <mmap@plt>
  40220d:	48 89 c3             	mov    %rax,%rbx
  402210:	48 3d 00 60 58 55    	cmp    $0x55586000,%rax
  402216:	74 37                	je     40224f <stable_launch+0x6f>
  402218:	be 00 00 10 00       	mov    $0x100000,%esi
  40221d:	48 89 c7             	mov    %rax,%rdi
  402220:	e8 cb eb ff ff       	callq  400df0 <munmap@plt>
  402225:	b9 00 60 58 55       	mov    $0x55586000,%ecx
  40222a:	ba 30 37 40 00       	mov    $0x403730,%edx
  40222f:	be 01 00 00 00       	mov    $0x1,%esi
  402234:	48 8b 3d a5 32 20 00 	mov    0x2032a5(%rip),%rdi        # 6054e0 <stderr@@GLIBC_2.2.5>
  40223b:	b8 00 00 00 00       	mov    $0x0,%eax
  402240:	e8 2b ec ff ff       	callq  400e70 <__fprintf_chk@plt>
  402245:	bf 01 00 00 00       	mov    $0x1,%edi
  40224a:	e8 01 ec ff ff       	callq  400e50 <exit@plt>
  40224f:	48 8d 90 f8 ff 0f 00 	lea    0xffff8(%rax),%rdx
  402256:	48 89 15 f3 3e 20 00 	mov    %rdx,0x203ef3(%rip)        # 606150 <stack_top>
  40225d:	48 89 e0             	mov    %rsp,%rax
  402260:	48 89 d4             	mov    %rdx,%rsp
  402263:	48 89 c2             	mov    %rax,%rdx
  402266:	48 89 15 93 32 20 00 	mov    %rdx,0x203293(%rip)        # 605500 <global_save_stack>
  40226d:	48 8b 3d 94 32 20 00 	mov    0x203294(%rip),%rdi        # 605508 <global_offset>
  402274:	e8 ba fe ff ff       	callq  402133 <launch>
  402279:	48 8b 05 80 32 20 00 	mov    0x203280(%rip),%rax        # 605500 <global_save_stack>
  402280:	48 89 c4             	mov    %rax,%rsp
  402283:	be 00 00 10 00       	mov    $0x100000,%esi
  402288:	48 89 df             	mov    %rbx,%rdi
  40228b:	e8 60 eb ff ff       	callq  400df0 <munmap@plt>
  402290:	5b                   	pop    %rbx
  402291:	c3                   	retq   

0000000000402292 <rio_readinitb>:
  402292:	89 37                	mov    %esi,(%rdi)
  402294:	c7 47 04 00 00 00 00 	movl   $0x0,0x4(%rdi)
  40229b:	48 8d 47 10          	lea    0x10(%rdi),%rax
  40229f:	48 89 47 08          	mov    %rax,0x8(%rdi)
  4022a3:	c3                   	retq   

00000000004022a4 <sigalrm_handler>:
  4022a4:	48 83 ec 08          	sub    $0x8,%rsp
  4022a8:	b9 00 00 00 00       	mov    $0x0,%ecx
  4022ad:	ba 70 37 40 00       	mov    $0x403770,%edx
  4022b2:	be 01 00 00 00       	mov    $0x1,%esi
  4022b7:	48 8b 3d 22 32 20 00 	mov    0x203222(%rip),%rdi        # 6054e0 <stderr@@GLIBC_2.2.5>
  4022be:	b8 00 00 00 00       	mov    $0x0,%eax
  4022c3:	e8 a8 eb ff ff       	callq  400e70 <__fprintf_chk@plt>
  4022c8:	bf 01 00 00 00       	mov    $0x1,%edi
  4022cd:	e8 7e eb ff ff       	callq  400e50 <exit@plt>

00000000004022d2 <rio_writen>:
  4022d2:	41 55                	push   %r13
  4022d4:	41 54                	push   %r12
  4022d6:	55                   	push   %rbp
  4022d7:	53                   	push   %rbx
  4022d8:	48 83 ec 08          	sub    $0x8,%rsp
  4022dc:	41 89 fc             	mov    %edi,%r12d
  4022df:	48 89 f5             	mov    %rsi,%rbp
  4022e2:	49 89 d5             	mov    %rdx,%r13
  4022e5:	48 89 d3             	mov    %rdx,%rbx
  4022e8:	eb 28                	jmp    402312 <rio_writen+0x40>
  4022ea:	48 89 da             	mov    %rbx,%rdx
  4022ed:	48 89 ee             	mov    %rbp,%rsi
  4022f0:	44 89 e7             	mov    %r12d,%edi
  4022f3:	e8 e8 e9 ff ff       	callq  400ce0 <write@plt>
  4022f8:	48 85 c0             	test   %rax,%rax
  4022fb:	7f 0f                	jg     40230c <rio_writen+0x3a>
  4022fd:	e8 8e e9 ff ff       	callq  400c90 <__errno_location@plt>
  402302:	83 38 04             	cmpl   $0x4,(%rax)
  402305:	75 15                	jne    40231c <rio_writen+0x4a>
  402307:	b8 00 00 00 00       	mov    $0x0,%eax
  40230c:	48 29 c3             	sub    %rax,%rbx
  40230f:	48 01 c5             	add    %rax,%rbp
  402312:	48 85 db             	test   %rbx,%rbx
  402315:	75 d3                	jne    4022ea <rio_writen+0x18>
  402317:	4c 89 e8             	mov    %r13,%rax
  40231a:	eb 07                	jmp    402323 <rio_writen+0x51>
  40231c:	48 c7 c0 ff ff ff ff 	mov    $0xffffffffffffffff,%rax
  402323:	48 83 c4 08          	add    $0x8,%rsp
  402327:	5b                   	pop    %rbx
  402328:	5d                   	pop    %rbp
  402329:	41 5c                	pop    %r12
  40232b:	41 5d                	pop    %r13
  40232d:	c3                   	retq   

000000000040232e <rio_read>:
  40232e:	41 55                	push   %r13
  402330:	41 54                	push   %r12
  402332:	55                   	push   %rbp
  402333:	53                   	push   %rbx
  402334:	48 83 ec 08          	sub    $0x8,%rsp
  402338:	48 89 fb             	mov    %rdi,%rbx
  40233b:	49 89 f5             	mov    %rsi,%r13
  40233e:	49 89 d4             	mov    %rdx,%r12
  402341:	eb 2e                	jmp    402371 <rio_read+0x43>
  402343:	48 8d 6b 10          	lea    0x10(%rbx),%rbp
  402347:	8b 3b                	mov    (%rbx),%edi
  402349:	ba 00 20 00 00       	mov    $0x2000,%edx
  40234e:	48 89 ee             	mov    %rbp,%rsi
  402351:	e8 ea e9 ff ff       	callq  400d40 <read@plt>
  402356:	89 43 04             	mov    %eax,0x4(%rbx)
  402359:	85 c0                	test   %eax,%eax
  40235b:	79 0c                	jns    402369 <rio_read+0x3b>
  40235d:	e8 2e e9 ff ff       	callq  400c90 <__errno_location@plt>
  402362:	83 38 04             	cmpl   $0x4,(%rax)
  402365:	74 0a                	je     402371 <rio_read+0x43>
  402367:	eb 37                	jmp    4023a0 <rio_read+0x72>
  402369:	85 c0                	test   %eax,%eax
  40236b:	74 3c                	je     4023a9 <rio_read+0x7b>
  40236d:	48 89 6b 08          	mov    %rbp,0x8(%rbx)
  402371:	8b 6b 04             	mov    0x4(%rbx),%ebp
  402374:	85 ed                	test   %ebp,%ebp
  402376:	7e cb                	jle    402343 <rio_read+0x15>
  402378:	89 e8                	mov    %ebp,%eax
  40237a:	49 39 c4             	cmp    %rax,%r12
  40237d:	77 03                	ja     402382 <rio_read+0x54>
  40237f:	44 89 e5             	mov    %r12d,%ebp
  402382:	4c 63 e5             	movslq %ebp,%r12
  402385:	48 8b 73 08          	mov    0x8(%rbx),%rsi
  402389:	4c 89 e2             	mov    %r12,%rdx
  40238c:	4c 89 ef             	mov    %r13,%rdi
  40238f:	e8 0c ea ff ff       	callq  400da0 <memcpy@plt>
  402394:	4c 01 63 08          	add    %r12,0x8(%rbx)
  402398:	29 6b 04             	sub    %ebp,0x4(%rbx)
  40239b:	4c 89 e0             	mov    %r12,%rax
  40239e:	eb 0e                	jmp    4023ae <rio_read+0x80>
  4023a0:	48 c7 c0 ff ff ff ff 	mov    $0xffffffffffffffff,%rax
  4023a7:	eb 05                	jmp    4023ae <rio_read+0x80>
  4023a9:	b8 00 00 00 00       	mov    $0x0,%eax
  4023ae:	48 83 c4 08          	add    $0x8,%rsp
  4023b2:	5b                   	pop    %rbx
  4023b3:	5d                   	pop    %rbp
  4023b4:	41 5c                	pop    %r12
  4023b6:	41 5d                	pop    %r13
  4023b8:	c3                   	retq   

00000000004023b9 <rio_readlineb>:
  4023b9:	41 55                	push   %r13
  4023bb:	41 54                	push   %r12
  4023bd:	55                   	push   %rbp
  4023be:	53                   	push   %rbx
  4023bf:	48 83 ec 18          	sub    $0x18,%rsp
  4023c3:	49 89 fd             	mov    %rdi,%r13
  4023c6:	48 89 f5             	mov    %rsi,%rbp
  4023c9:	49 89 d4             	mov    %rdx,%r12
  4023cc:	64 48 8b 04 25 28 00 	mov    %fs:0x28,%rax
  4023d3:	00 00 
  4023d5:	48 89 44 24 08       	mov    %rax,0x8(%rsp)
  4023da:	31 c0                	xor    %eax,%eax
  4023dc:	bb 01 00 00 00       	mov    $0x1,%ebx
  4023e1:	eb 3f                	jmp    402422 <rio_readlineb+0x69>
  4023e3:	ba 01 00 00 00       	mov    $0x1,%edx
  4023e8:	48 8d 74 24 07       	lea    0x7(%rsp),%rsi
  4023ed:	4c 89 ef             	mov    %r13,%rdi
  4023f0:	e8 39 ff ff ff       	callq  40232e <rio_read>
  4023f5:	83 f8 01             	cmp    $0x1,%eax
  4023f8:	75 15                	jne    40240f <rio_readlineb+0x56>
  4023fa:	48 8d 45 01          	lea    0x1(%rbp),%rax
  4023fe:	0f b6 54 24 07       	movzbl 0x7(%rsp),%edx
  402403:	88 55 00             	mov    %dl,0x0(%rbp)
  402406:	80 7c 24 07 0a       	cmpb   $0xa,0x7(%rsp)
  40240b:	75 0e                	jne    40241b <rio_readlineb+0x62>
  40240d:	eb 1a                	jmp    402429 <rio_readlineb+0x70>
  40240f:	85 c0                	test   %eax,%eax
  402411:	75 22                	jne    402435 <rio_readlineb+0x7c>
  402413:	48 83 fb 01          	cmp    $0x1,%rbx
  402417:	75 13                	jne    40242c <rio_readlineb+0x73>
  402419:	eb 23                	jmp    40243e <rio_readlineb+0x85>
  40241b:	48 83 c3 01          	add    $0x1,%rbx
  40241f:	48 89 c5             	mov    %rax,%rbp
  402422:	4c 39 e3             	cmp    %r12,%rbx
  402425:	72 bc                	jb     4023e3 <rio_readlineb+0x2a>
  402427:	eb 03                	jmp    40242c <rio_readlineb+0x73>
  402429:	48 89 c5             	mov    %rax,%rbp
  40242c:	c6 45 00 00          	movb   $0x0,0x0(%rbp)
  402430:	48 89 d8             	mov    %rbx,%rax
  402433:	eb 0e                	jmp    402443 <rio_readlineb+0x8a>
  402435:	48 c7 c0 ff ff ff ff 	mov    $0xffffffffffffffff,%rax
  40243c:	eb 05                	jmp    402443 <rio_readlineb+0x8a>
  40243e:	b8 00 00 00 00       	mov    $0x0,%eax
  402443:	48 8b 4c 24 08       	mov    0x8(%rsp),%rcx
  402448:	64 48 33 0c 25 28 00 	xor    %fs:0x28,%rcx
  40244f:	00 00 
  402451:	74 05                	je     402458 <rio_readlineb+0x9f>
  402453:	e8 98 e8 ff ff       	callq  400cf0 <__stack_chk_fail@plt>
  402458:	48 83 c4 18          	add    $0x18,%rsp
  40245c:	5b                   	pop    %rbx
  40245d:	5d                   	pop    %rbp
  40245e:	41 5c                	pop    %r12
  402460:	41 5d                	pop    %r13
  402462:	c3                   	retq   

0000000000402463 <urlencode>:
  402463:	41 54                	push   %r12
  402465:	55                   	push   %rbp
  402466:	53                   	push   %rbx
  402467:	48 83 ec 10          	sub    $0x10,%rsp
  40246b:	48 89 fb             	mov    %rdi,%rbx
  40246e:	48 89 f5             	mov    %rsi,%rbp
  402471:	64 48 8b 04 25 28 00 	mov    %fs:0x28,%rax
  402478:	00 00 
  40247a:	48 89 44 24 08       	mov    %rax,0x8(%rsp)
  40247f:	31 c0                	xor    %eax,%eax
  402481:	48 c7 c1 ff ff ff ff 	mov    $0xffffffffffffffff,%rcx
  402488:	f2 ae                	repnz scas %es:(%rdi),%al
  40248a:	48 f7 d1             	not    %rcx
  40248d:	8d 41 ff             	lea    -0x1(%rcx),%eax
  402490:	e9 aa 00 00 00       	jmpq   40253f <urlencode+0xdc>
  402495:	44 0f b6 03          	movzbl (%rbx),%r8d
  402499:	41 80 f8 2a          	cmp    $0x2a,%r8b
  40249d:	0f 94 c2             	sete   %dl
  4024a0:	41 80 f8 2d          	cmp    $0x2d,%r8b
  4024a4:	0f 94 c0             	sete   %al
  4024a7:	08 c2                	or     %al,%dl
  4024a9:	75 24                	jne    4024cf <urlencode+0x6c>
  4024ab:	41 80 f8 2e          	cmp    $0x2e,%r8b
  4024af:	74 1e                	je     4024cf <urlencode+0x6c>
  4024b1:	41 80 f8 5f          	cmp    $0x5f,%r8b
  4024b5:	74 18                	je     4024cf <urlencode+0x6c>
  4024b7:	41 8d 40 d0          	lea    -0x30(%r8),%eax
  4024bb:	3c 09                	cmp    $0x9,%al
  4024bd:	76 10                	jbe    4024cf <urlencode+0x6c>
  4024bf:	41 8d 40 bf          	lea    -0x41(%r8),%eax
  4024c3:	3c 19                	cmp    $0x19,%al
  4024c5:	76 08                	jbe    4024cf <urlencode+0x6c>
  4024c7:	41 8d 40 9f          	lea    -0x61(%r8),%eax
  4024cb:	3c 19                	cmp    $0x19,%al
  4024cd:	77 0a                	ja     4024d9 <urlencode+0x76>
  4024cf:	44 88 45 00          	mov    %r8b,0x0(%rbp)
  4024d3:	48 8d 6d 01          	lea    0x1(%rbp),%rbp
  4024d7:	eb 5f                	jmp    402538 <urlencode+0xd5>
  4024d9:	41 80 f8 20          	cmp    $0x20,%r8b
  4024dd:	75 0a                	jne    4024e9 <urlencode+0x86>
  4024df:	c6 45 00 2b          	movb   $0x2b,0x0(%rbp)
  4024e3:	48 8d 6d 01          	lea    0x1(%rbp),%rbp
  4024e7:	eb 4f                	jmp    402538 <urlencode+0xd5>
  4024e9:	41 8d 40 e0          	lea    -0x20(%r8),%eax
  4024ed:	3c 5f                	cmp    $0x5f,%al
  4024ef:	0f 96 c2             	setbe  %dl
  4024f2:	41 80 f8 09          	cmp    $0x9,%r8b
  4024f6:	0f 94 c0             	sete   %al
  4024f9:	08 c2                	or     %al,%dl
  4024fb:	74 50                	je     40254d <urlencode+0xea>
  4024fd:	45 0f b6 c0          	movzbl %r8b,%r8d
  402501:	b9 08 38 40 00       	mov    $0x403808,%ecx
  402506:	ba 08 00 00 00       	mov    $0x8,%edx
  40250b:	be 01 00 00 00       	mov    $0x1,%esi
  402510:	48 89 e7             	mov    %rsp,%rdi
  402513:	b8 00 00 00 00       	mov    $0x0,%eax
  402518:	e8 63 e9 ff ff       	callq  400e80 <__sprintf_chk@plt>
  40251d:	0f b6 04 24          	movzbl (%rsp),%eax
  402521:	88 45 00             	mov    %al,0x0(%rbp)
  402524:	0f b6 44 24 01       	movzbl 0x1(%rsp),%eax
  402529:	88 45 01             	mov    %al,0x1(%rbp)
  40252c:	0f b6 44 24 02       	movzbl 0x2(%rsp),%eax
  402531:	88 45 02             	mov    %al,0x2(%rbp)
  402534:	48 8d 6d 03          	lea    0x3(%rbp),%rbp
  402538:	48 83 c3 01          	add    $0x1,%rbx
  40253c:	44 89 e0             	mov    %r12d,%eax
  40253f:	44 8d 60 ff          	lea    -0x1(%rax),%r12d
  402543:	85 c0                	test   %eax,%eax
  402545:	0f 85 4a ff ff ff    	jne    402495 <urlencode+0x32>
  40254b:	eb 05                	jmp    402552 <urlencode+0xef>
  40254d:	b8 ff ff ff ff       	mov    $0xffffffff,%eax
  402552:	48 8b 74 24 08       	mov    0x8(%rsp),%rsi
  402557:	64 48 33 34 25 28 00 	xor    %fs:0x28,%rsi
  40255e:	00 00 
  402560:	74 05                	je     402567 <urlencode+0x104>
  402562:	e8 89 e7 ff ff       	callq  400cf0 <__stack_chk_fail@plt>
  402567:	48 83 c4 10          	add    $0x10,%rsp
  40256b:	5b                   	pop    %rbx
  40256c:	5d                   	pop    %rbp
  40256d:	41 5c                	pop    %r12
  40256f:	c3                   	retq   

0000000000402570 <submitr>:
  402570:	41 57                	push   %r15
  402572:	41 56                	push   %r14
  402574:	41 55                	push   %r13
  402576:	41 54                	push   %r12
  402578:	55                   	push   %rbp
  402579:	53                   	push   %rbx
  40257a:	48 81 ec 58 a0 00 00 	sub    $0xa058,%rsp
  402581:	49 89 fc             	mov    %rdi,%r12
  402584:	89 74 24 04          	mov    %esi,0x4(%rsp)
  402588:	49 89 d7             	mov    %rdx,%r15
  40258b:	49 89 ce             	mov    %rcx,%r14
  40258e:	4c 89 44 24 08       	mov    %r8,0x8(%rsp)
  402593:	4d 89 cd             	mov    %r9,%r13
  402596:	48 8b 9c 24 90 a0 00 	mov    0xa090(%rsp),%rbx
  40259d:	00 
  40259e:	64 48 8b 04 25 28 00 	mov    %fs:0x28,%rax
  4025a5:	00 00 
  4025a7:	48 89 84 24 48 a0 00 	mov    %rax,0xa048(%rsp)
  4025ae:	00 
  4025af:	31 c0                	xor    %eax,%eax
  4025b1:	c7 44 24 1c 00 00 00 	movl   $0x0,0x1c(%rsp)
  4025b8:	00 
  4025b9:	ba 00 00 00 00       	mov    $0x0,%edx
  4025be:	be 01 00 00 00       	mov    $0x1,%esi
  4025c3:	bf 02 00 00 00       	mov    $0x2,%edi
  4025c8:	e8 c3 e8 ff ff       	callq  400e90 <socket@plt>
  4025cd:	85 c0                	test   %eax,%eax
  4025cf:	79 4e                	jns    40261f <submitr+0xaf>
  4025d1:	48 b8 45 72 72 6f 72 	movabs $0x43203a726f727245,%rax
  4025d8:	3a 20 43 
  4025db:	48 89 03             	mov    %rax,(%rbx)
  4025de:	48 b8 6c 69 65 6e 74 	movabs $0x6e7520746e65696c,%rax
  4025e5:	20 75 6e 
  4025e8:	48 89 43 08          	mov    %rax,0x8(%rbx)
  4025ec:	48 b8 61 62 6c 65 20 	movabs $0x206f7420656c6261,%rax
  4025f3:	74 6f 20 
  4025f6:	48 89 43 10          	mov    %rax,0x10(%rbx)
  4025fa:	48 b8 63 72 65 61 74 	movabs $0x7320657461657263,%rax
  402601:	65 20 73 
  402604:	48 89 43 18          	mov    %rax,0x18(%rbx)
  402608:	c7 43 20 6f 63 6b 65 	movl   $0x656b636f,0x20(%rbx)
  40260f:	66 c7 43 24 74 00    	movw   $0x74,0x24(%rbx)
  402615:	b8 ff ff ff ff       	mov    $0xffffffff,%eax
  40261a:	e9 97 06 00 00       	jmpq   402cb6 <submitr+0x746>
  40261f:	89 c5                	mov    %eax,%ebp
  402621:	4c 89 e7             	mov    %r12,%rdi
  402624:	e8 47 e7 ff ff       	callq  400d70 <gethostbyname@plt>
  402629:	48 85 c0             	test   %rax,%rax
  40262c:	75 67                	jne    402695 <submitr+0x125>
  40262e:	48 b8 45 72 72 6f 72 	movabs $0x44203a726f727245,%rax
  402635:	3a 20 44 
  402638:	48 89 03             	mov    %rax,(%rbx)
  40263b:	48 b8 4e 53 20 69 73 	movabs $0x6e7520736920534e,%rax
  402642:	20 75 6e 
  402645:	48 89 43 08          	mov    %rax,0x8(%rbx)
  402649:	48 b8 61 62 6c 65 20 	movabs $0x206f7420656c6261,%rax
  402650:	74 6f 20 
  402653:	48 89 43 10          	mov    %rax,0x10(%rbx)
  402657:	48 b8 72 65 73 6f 6c 	movabs $0x2065766c6f736572,%rax
  40265e:	76 65 20 
  402661:	48 89 43 18          	mov    %rax,0x18(%rbx)
  402665:	48 b8 73 65 72 76 65 	movabs $0x6120726576726573,%rax
  40266c:	72 20 61 
  40266f:	48 89 43 20          	mov    %rax,0x20(%rbx)
  402673:	c7 43 28 64 64 72 65 	movl   $0x65726464,0x28(%rbx)
  40267a:	66 c7 43 2c 73 73    	movw   $0x7373,0x2c(%rbx)
  402680:	c6 43 2e 00          	movb   $0x0,0x2e(%rbx)
  402684:	89 ef                	mov    %ebp,%edi
  402686:	e8 a5 e6 ff ff       	callq  400d30 <close@plt>
  40268b:	b8 ff ff ff ff       	mov    $0xffffffff,%eax
  402690:	e9 21 06 00 00       	jmpq   402cb6 <submitr+0x746>
  402695:	48 c7 44 24 20 00 00 	movq   $0x0,0x20(%rsp)
  40269c:	00 00 
  40269e:	48 c7 44 24 28 00 00 	movq   $0x0,0x28(%rsp)
  4026a5:	00 00 
  4026a7:	66 c7 44 24 20 02 00 	movw   $0x2,0x20(%rsp)
  4026ae:	48 63 50 14          	movslq 0x14(%rax),%rdx
  4026b2:	48 8b 40 18          	mov    0x18(%rax),%rax
  4026b6:	48 8b 30             	mov    (%rax),%rsi
  4026b9:	48 8d 7c 24 24       	lea    0x24(%rsp),%rdi
  4026be:	b9 0c 00 00 00       	mov    $0xc,%ecx
  4026c3:	e8 b8 e6 ff ff       	callq  400d80 <__memmove_chk@plt>
  4026c8:	0f b7 44 24 04       	movzwl 0x4(%rsp),%eax
  4026cd:	66 c1 c8 08          	ror    $0x8,%ax
  4026d1:	66 89 44 24 22       	mov    %ax,0x22(%rsp)
  4026d6:	ba 10 00 00 00       	mov    $0x10,%edx
  4026db:	48 8d 74 24 20       	lea    0x20(%rsp),%rsi
  4026e0:	89 ef                	mov    %ebp,%edi
  4026e2:	e8 79 e7 ff ff       	callq  400e60 <connect@plt>
  4026e7:	85 c0                	test   %eax,%eax
  4026e9:	79 59                	jns    402744 <submitr+0x1d4>
  4026eb:	48 b8 45 72 72 6f 72 	movabs $0x55203a726f727245,%rax
  4026f2:	3a 20 55 
  4026f5:	48 89 03             	mov    %rax,(%rbx)
  4026f8:	48 b8 6e 61 62 6c 65 	movabs $0x6f7420656c62616e,%rax
  4026ff:	20 74 6f 
  402702:	48 89 43 08          	mov    %rax,0x8(%rbx)
  402706:	48 b8 20 63 6f 6e 6e 	movabs $0x7463656e6e6f6320,%rax
  40270d:	65 63 74 
  402710:	48 89 43 10          	mov    %rax,0x10(%rbx)
  402714:	48 b8 20 74 6f 20 74 	movabs $0x20656874206f7420,%rax
  40271b:	68 65 20 
  40271e:	48 89 43 18          	mov    %rax,0x18(%rbx)
  402722:	c7 43 20 73 65 72 76 	movl   $0x76726573,0x20(%rbx)
  402729:	66 c7 43 24 65 72    	movw   $0x7265,0x24(%rbx)
  40272f:	c6 43 26 00          	movb   $0x0,0x26(%rbx)
  402733:	89 ef                	mov    %ebp,%edi
  402735:	e8 f6 e5 ff ff       	callq  400d30 <close@plt>
  40273a:	b8 ff ff ff ff       	mov    $0xffffffff,%eax
  40273f:	e9 72 05 00 00       	jmpq   402cb6 <submitr+0x746>
  402744:	48 c7 c6 ff ff ff ff 	mov    $0xffffffffffffffff,%rsi
  40274b:	b8 00 00 00 00       	mov    $0x0,%eax
  402750:	48 89 f1             	mov    %rsi,%rcx
  402753:	4c 89 ef             	mov    %r13,%rdi
  402756:	f2 ae                	repnz scas %es:(%rdi),%al
  402758:	48 f7 d1             	not    %rcx
  40275b:	48 89 ca             	mov    %rcx,%rdx
  40275e:	48 89 f1             	mov    %rsi,%rcx
  402761:	4c 89 ff             	mov    %r15,%rdi
  402764:	f2 ae                	repnz scas %es:(%rdi),%al
  402766:	48 f7 d1             	not    %rcx
  402769:	49 89 c8             	mov    %rcx,%r8
  40276c:	48 89 f1             	mov    %rsi,%rcx
  40276f:	4c 89 f7             	mov    %r14,%rdi
  402772:	f2 ae                	repnz scas %es:(%rdi),%al
  402774:	48 f7 d1             	not    %rcx
  402777:	4d 8d 44 08 fe       	lea    -0x2(%r8,%rcx,1),%r8
  40277c:	48 89 f1             	mov    %rsi,%rcx
  40277f:	48 8b 7c 24 08       	mov    0x8(%rsp),%rdi
  402784:	f2 ae                	repnz scas %es:(%rdi),%al
  402786:	48 89 c8             	mov    %rcx,%rax
  402789:	48 f7 d0             	not    %rax
  40278c:	49 8d 4c 00 ff       	lea    -0x1(%r8,%rax,1),%rcx
  402791:	48 8d 44 52 fd       	lea    -0x3(%rdx,%rdx,2),%rax
  402796:	48 8d 84 01 80 00 00 	lea    0x80(%rcx,%rax,1),%rax
  40279d:	00 
  40279e:	48 3d 00 20 00 00    	cmp    $0x2000,%rax
  4027a4:	76 72                	jbe    402818 <submitr+0x2a8>
  4027a6:	48 b8 45 72 72 6f 72 	movabs $0x52203a726f727245,%rax
  4027ad:	3a 20 52 
  4027b0:	48 89 03             	mov    %rax,(%rbx)
  4027b3:	48 b8 65 73 75 6c 74 	movabs $0x747320746c757365,%rax
  4027ba:	20 73 74 
  4027bd:	48 89 43 08          	mov    %rax,0x8(%rbx)
  4027c1:	48 b8 72 69 6e 67 20 	movabs $0x6f6f7420676e6972,%rax
  4027c8:	74 6f 6f 
  4027cb:	48 89 43 10          	mov    %rax,0x10(%rbx)
  4027cf:	48 b8 20 6c 61 72 67 	movabs $0x202e656772616c20,%rax
  4027d6:	65 2e 20 
  4027d9:	48 89 43 18          	mov    %rax,0x18(%rbx)
  4027dd:	48 b8 49 6e 63 72 65 	movabs $0x6573616572636e49,%rax
  4027e4:	61 73 65 
  4027e7:	48 89 43 20          	mov    %rax,0x20(%rbx)
  4027eb:	48 b8 20 53 55 42 4d 	movabs $0x5254494d42555320,%rax
  4027f2:	49 54 52 
  4027f5:	48 89 43 28          	mov    %rax,0x28(%rbx)
  4027f9:	48 b8 5f 4d 41 58 42 	movabs $0x46554258414d5f,%rax
  402800:	55 46 00 
  402803:	48 89 43 30          	mov    %rax,0x30(%rbx)
  402807:	89 ef                	mov    %ebp,%edi
  402809:	e8 22 e5 ff ff       	callq  400d30 <close@plt>
  40280e:	b8 ff ff ff ff       	mov    $0xffffffff,%eax
  402813:	e9 9e 04 00 00       	jmpq   402cb6 <submitr+0x746>
  402818:	48 8d b4 24 40 40 00 	lea    0x4040(%rsp),%rsi
  40281f:	00 
  402820:	b9 00 04 00 00       	mov    $0x400,%ecx
  402825:	b8 00 00 00 00       	mov    $0x0,%eax
  40282a:	48 89 f7             	mov    %rsi,%rdi
  40282d:	f3 48 ab             	rep stos %rax,%es:(%rdi)
  402830:	4c 89 ef             	mov    %r13,%rdi
  402833:	e8 2b fc ff ff       	callq  402463 <urlencode>
  402838:	85 c0                	test   %eax,%eax
  40283a:	0f 89 8a 00 00 00    	jns    4028ca <submitr+0x35a>
  402840:	48 b8 45 72 72 6f 72 	movabs $0x52203a726f727245,%rax
  402847:	3a 20 52 
  40284a:	48 89 03             	mov    %rax,(%rbx)
  40284d:	48 b8 65 73 75 6c 74 	movabs $0x747320746c757365,%rax
  402854:	20 73 74 
  402857:	48 89 43 08          	mov    %rax,0x8(%rbx)
  40285b:	48 b8 72 69 6e 67 20 	movabs $0x6e6f6320676e6972,%rax
  402862:	63 6f 6e 
  402865:	48 89 43 10          	mov    %rax,0x10(%rbx)
  402869:	48 b8 74 61 69 6e 73 	movabs $0x6e6120736e696174,%rax
  402870:	20 61 6e 
  402873:	48 89 43 18          	mov    %rax,0x18(%rbx)
  402877:	48 b8 20 69 6c 6c 65 	movabs $0x6c6167656c6c6920,%rax
  40287e:	67 61 6c 
  402881:	48 89 43 20          	mov    %rax,0x20(%rbx)
  402885:	48 b8 20 6f 72 20 75 	movabs $0x72706e7520726f20,%rax
  40288c:	6e 70 72 
  40288f:	48 89 43 28          	mov    %rax,0x28(%rbx)
  402893:	48 b8 69 6e 74 61 62 	movabs $0x20656c6261746e69,%rax
  40289a:	6c 65 20 
  40289d:	48 89 43 30          	mov    %rax,0x30(%rbx)
  4028a1:	48 b8 63 68 61 72 61 	movabs $0x6574636172616863,%rax
  4028a8:	63 74 65 
  4028ab:	48 89 43 38          	mov    %rax,0x38(%rbx)
  4028af:	66 c7 43 40 72 2e    	movw   $0x2e72,0x40(%rbx)
  4028b5:	c6 43 42 00          	movb   $0x0,0x42(%rbx)
  4028b9:	89 ef                	mov    %ebp,%edi
  4028bb:	e8 70 e4 ff ff       	callq  400d30 <close@plt>
  4028c0:	b8 ff ff ff ff       	mov    $0xffffffff,%eax
  4028c5:	e9 ec 03 00 00       	jmpq   402cb6 <submitr+0x746>
  4028ca:	4c 8d ac 24 40 20 00 	lea    0x2040(%rsp),%r13
  4028d1:	00 
  4028d2:	41 54                	push   %r12
  4028d4:	48 8d 84 24 48 40 00 	lea    0x4048(%rsp),%rax
  4028db:	00 
  4028dc:	50                   	push   %rax
  4028dd:	4d 89 f9             	mov    %r15,%r9
  4028e0:	4d 89 f0             	mov    %r14,%r8
  4028e3:	b9 98 37 40 00       	mov    $0x403798,%ecx
  4028e8:	ba 00 20 00 00       	mov    $0x2000,%edx
  4028ed:	be 01 00 00 00       	mov    $0x1,%esi
  4028f2:	4c 89 ef             	mov    %r13,%rdi
  4028f5:	b8 00 00 00 00       	mov    $0x0,%eax
  4028fa:	e8 81 e5 ff ff       	callq  400e80 <__sprintf_chk@plt>
  4028ff:	b8 00 00 00 00       	mov    $0x0,%eax
  402904:	48 c7 c1 ff ff ff ff 	mov    $0xffffffffffffffff,%rcx
  40290b:	4c 89 ef             	mov    %r13,%rdi
  40290e:	f2 ae                	repnz scas %es:(%rdi),%al
  402910:	48 f7 d1             	not    %rcx
  402913:	48 8d 51 ff          	lea    -0x1(%rcx),%rdx
  402917:	4c 89 ee             	mov    %r13,%rsi
  40291a:	89 ef                	mov    %ebp,%edi
  40291c:	e8 b1 f9 ff ff       	callq  4022d2 <rio_writen>
  402921:	48 83 c4 10          	add    $0x10,%rsp
  402925:	48 85 c0             	test   %rax,%rax
  402928:	79 6e                	jns    402998 <submitr+0x428>
  40292a:	48 b8 45 72 72 6f 72 	movabs $0x43203a726f727245,%rax
  402931:	3a 20 43 
  402934:	48 89 03             	mov    %rax,(%rbx)
  402937:	48 b8 6c 69 65 6e 74 	movabs $0x6e7520746e65696c,%rax
  40293e:	20 75 6e 
  402941:	48 89 43 08          	mov    %rax,0x8(%rbx)
  402945:	48 b8 61 62 6c 65 20 	movabs $0x206f7420656c6261,%rax
  40294c:	74 6f 20 
  40294f:	48 89 43 10          	mov    %rax,0x10(%rbx)
  402953:	48 b8 77 72 69 74 65 	movabs $0x6f74206574697277,%rax
  40295a:	20 74 6f 
  40295d:	48 89 43 18          	mov    %rax,0x18(%rbx)
  402961:	48 b8 20 74 68 65 20 	movabs $0x7365722065687420,%rax
  402968:	72 65 73 
  40296b:	48 89 43 20          	mov    %rax,0x20(%rbx)
  40296f:	48 b8 75 6c 74 20 73 	movabs $0x7672657320746c75,%rax
  402976:	65 72 76 
  402979:	48 89 43 28          	mov    %rax,0x28(%rbx)
  40297d:	66 c7 43 30 65 72    	movw   $0x7265,0x30(%rbx)
  402983:	c6 43 32 00          	movb   $0x0,0x32(%rbx)
  402987:	89 ef                	mov    %ebp,%edi
  402989:	e8 a2 e3 ff ff       	callq  400d30 <close@plt>
  40298e:	b8 ff ff ff ff       	mov    $0xffffffff,%eax
  402993:	e9 1e 03 00 00       	jmpq   402cb6 <submitr+0x746>
  402998:	89 ee                	mov    %ebp,%esi
  40299a:	48 8d 7c 24 30       	lea    0x30(%rsp),%rdi
  40299f:	e8 ee f8 ff ff       	callq  402292 <rio_readinitb>
  4029a4:	ba 00 20 00 00       	mov    $0x2000,%edx
  4029a9:	48 8d b4 24 40 20 00 	lea    0x2040(%rsp),%rsi
  4029b0:	00 
  4029b1:	48 8d 7c 24 30       	lea    0x30(%rsp),%rdi
  4029b6:	e8 fe f9 ff ff       	callq  4023b9 <rio_readlineb>
  4029bb:	48 85 c0             	test   %rax,%rax
  4029be:	7f 7d                	jg     402a3d <submitr+0x4cd>
  4029c0:	48 b8 45 72 72 6f 72 	movabs $0x43203a726f727245,%rax
  4029c7:	3a 20 43 
  4029ca:	48 89 03             	mov    %rax,(%rbx)
  4029cd:	48 b8 6c 69 65 6e 74 	movabs $0x6e7520746e65696c,%rax
  4029d4:	20 75 6e 
  4029d7:	48 89 43 08          	mov    %rax,0x8(%rbx)
  4029db:	48 b8 61 62 6c 65 20 	movabs $0x206f7420656c6261,%rax
  4029e2:	74 6f 20 
  4029e5:	48 89 43 10          	mov    %rax,0x10(%rbx)
  4029e9:	48 b8 72 65 61 64 20 	movabs $0x7269662064616572,%rax
  4029f0:	66 69 72 
  4029f3:	48 89 43 18          	mov    %rax,0x18(%rbx)
  4029f7:	48 b8 73 74 20 68 65 	movabs $0x6564616568207473,%rax
  4029fe:	61 64 65 
  402a01:	48 89 43 20          	mov    %rax,0x20(%rbx)
  402a05:	48 b8 72 20 66 72 6f 	movabs $0x72206d6f72662072,%rax
  402a0c:	6d 20 72 
  402a0f:	48 89 43 28          	mov    %rax,0x28(%rbx)
  402a13:	48 b8 65 73 75 6c 74 	movabs $0x657320746c757365,%rax
  402a1a:	20 73 65 
  402a1d:	48 89 43 30          	mov    %rax,0x30(%rbx)
  402a21:	c7 43 38 72 76 65 72 	movl   $0x72657672,0x38(%rbx)
  402a28:	c6 43 3c 00          	movb   $0x0,0x3c(%rbx)
  402a2c:	89 ef                	mov    %ebp,%edi
  402a2e:	e8 fd e2 ff ff       	callq  400d30 <close@plt>
  402a33:	b8 ff ff ff ff       	mov    $0xffffffff,%eax
  402a38:	e9 79 02 00 00       	jmpq   402cb6 <submitr+0x746>
  402a3d:	4c 8d 84 24 40 80 00 	lea    0x8040(%rsp),%r8
  402a44:	00 
  402a45:	48 8d 4c 24 1c       	lea    0x1c(%rsp),%rcx
  402a4a:	48 8d 94 24 40 60 00 	lea    0x6040(%rsp),%rdx
  402a51:	00 
  402a52:	be 0f 38 40 00       	mov    $0x40380f,%esi
  402a57:	48 8d bc 24 40 20 00 	lea    0x2040(%rsp),%rdi
  402a5e:	00 
  402a5f:	b8 00 00 00 00       	mov    $0x0,%eax
  402a64:	e8 77 e3 ff ff       	callq  400de0 <__isoc99_sscanf@plt>
  402a69:	e9 95 00 00 00       	jmpq   402b03 <submitr+0x593>
  402a6e:	ba 00 20 00 00       	mov    $0x2000,%edx
  402a73:	48 8d b4 24 40 20 00 	lea    0x2040(%rsp),%rsi
  402a7a:	00 
  402a7b:	48 8d 7c 24 30       	lea    0x30(%rsp),%rdi
  402a80:	e8 34 f9 ff ff       	callq  4023b9 <rio_readlineb>
  402a85:	48 85 c0             	test   %rax,%rax
  402a88:	7f 79                	jg     402b03 <submitr+0x593>
  402a8a:	48 b8 45 72 72 6f 72 	movabs $0x43203a726f727245,%rax
  402a91:	3a 20 43 
  402a94:	48 89 03             	mov    %rax,(%rbx)
  402a97:	48 b8 6c 69 65 6e 74 	movabs $0x6e7520746e65696c,%rax
  402a9e:	20 75 6e 
  402aa1:	48 89 43 08          	mov    %rax,0x8(%rbx)
  402aa5:	48 b8 61 62 6c 65 20 	movabs $0x206f7420656c6261,%rax
  402aac:	74 6f 20 
  402aaf:	48 89 43 10          	mov    %rax,0x10(%rbx)
  402ab3:	48 b8 72 65 61 64 20 	movabs $0x6165682064616572,%rax
  402aba:	68 65 61 
  402abd:	48 89 43 18          	mov    %rax,0x18(%rbx)
  402ac1:	48 b8 64 65 72 73 20 	movabs $0x6f72662073726564,%rax
  402ac8:	66 72 6f 
  402acb:	48 89 43 20          	mov    %rax,0x20(%rbx)
  402acf:	48 b8 6d 20 74 68 65 	movabs $0x657220656874206d,%rax
  402ad6:	20 72 65 
  402ad9:	48 89 43 28          	mov    %rax,0x28(%rbx)
  402add:	48 b8 73 75 6c 74 20 	movabs $0x72657320746c7573,%rax
  402ae4:	73 65 72 
  402ae7:	48 89 43 30          	mov    %rax,0x30(%rbx)
  402aeb:	c7 43 38 76 65 72 00 	movl   $0x726576,0x38(%rbx)
  402af2:	89 ef                	mov    %ebp,%edi
  402af4:	e8 37 e2 ff ff       	callq  400d30 <close@plt>
  402af9:	b8 ff ff ff ff       	mov    $0xffffffff,%eax
  402afe:	e9 b3 01 00 00       	jmpq   402cb6 <submitr+0x746>
  402b03:	0f b6 94 24 40 20 00 	movzbl 0x2040(%rsp),%edx
  402b0a:	00 
  402b0b:	b8 0d 00 00 00       	mov    $0xd,%eax
  402b10:	29 d0                	sub    %edx,%eax
  402b12:	75 1b                	jne    402b2f <submitr+0x5bf>
  402b14:	0f b6 94 24 41 20 00 	movzbl 0x2041(%rsp),%edx
  402b1b:	00 
  402b1c:	b8 0a 00 00 00       	mov    $0xa,%eax
  402b21:	29 d0                	sub    %edx,%eax
  402b23:	75 0a                	jne    402b2f <submitr+0x5bf>
  402b25:	0f b6 84 24 42 20 00 	movzbl 0x2042(%rsp),%eax
  402b2c:	00 
  402b2d:	f7 d8                	neg    %eax
  402b2f:	85 c0                	test   %eax,%eax
  402b31:	0f 85 37 ff ff ff    	jne    402a6e <submitr+0x4fe>
  402b37:	ba 00 20 00 00       	mov    $0x2000,%edx
  402b3c:	48 8d b4 24 40 20 00 	lea    0x2040(%rsp),%rsi
  402b43:	00 
  402b44:	48 8d 7c 24 30       	lea    0x30(%rsp),%rdi
  402b49:	e8 6b f8 ff ff       	callq  4023b9 <rio_readlineb>
  402b4e:	48 85 c0             	test   %rax,%rax
  402b51:	0f 8f 83 00 00 00    	jg     402bda <submitr+0x66a>
  402b57:	48 b8 45 72 72 6f 72 	movabs $0x43203a726f727245,%rax
  402b5e:	3a 20 43 
  402b61:	48 89 03             	mov    %rax,(%rbx)
  402b64:	48 b8 6c 69 65 6e 74 	movabs $0x6e7520746e65696c,%rax
  402b6b:	20 75 6e 
  402b6e:	48 89 43 08          	mov    %rax,0x8(%rbx)
  402b72:	48 b8 61 62 6c 65 20 	movabs $0x206f7420656c6261,%rax
  402b79:	74 6f 20 
  402b7c:	48 89 43 10          	mov    %rax,0x10(%rbx)
  402b80:	48 b8 72 65 61 64 20 	movabs $0x6174732064616572,%rax
  402b87:	73 74 61 
  402b8a:	48 89 43 18          	mov    %rax,0x18(%rbx)
  402b8e:	48 b8 74 75 73 20 6d 	movabs $0x7373656d20737574,%rax
  402b95:	65 73 73 
  402b98:	48 89 43 20          	mov    %rax,0x20(%rbx)
  402b9c:	48 b8 61 67 65 20 66 	movabs $0x6d6f726620656761,%rax
  402ba3:	72 6f 6d 
  402ba6:	48 89 43 28          	mov    %rax,0x28(%rbx)
  402baa:	48 b8 20 72 65 73 75 	movabs $0x20746c7573657220,%rax
  402bb1:	6c 74 20 
  402bb4:	48 89 43 30          	mov    %rax,0x30(%rbx)
  402bb8:	c7 43 38 73 65 72 76 	movl   $0x76726573,0x38(%rbx)
  402bbf:	66 c7 43 3c 65 72    	movw   $0x7265,0x3c(%rbx)
  402bc5:	c6 43 3e 00          	movb   $0x0,0x3e(%rbx)
  402bc9:	89 ef                	mov    %ebp,%edi
  402bcb:	e8 60 e1 ff ff       	callq  400d30 <close@plt>
  402bd0:	b8 ff ff ff ff       	mov    $0xffffffff,%eax
  402bd5:	e9 dc 00 00 00       	jmpq   402cb6 <submitr+0x746>
  402bda:	44 8b 44 24 1c       	mov    0x1c(%rsp),%r8d
  402bdf:	41 81 f8 c8 00 00 00 	cmp    $0xc8,%r8d
  402be6:	74 37                	je     402c1f <submitr+0x6af>
  402be8:	4c 8d 8c 24 40 80 00 	lea    0x8040(%rsp),%r9
  402bef:	00 
  402bf0:	b9 d8 37 40 00       	mov    $0x4037d8,%ecx
  402bf5:	48 c7 c2 ff ff ff ff 	mov    $0xffffffffffffffff,%rdx
  402bfc:	be 01 00 00 00       	mov    $0x1,%esi
  402c01:	48 89 df             	mov    %rbx,%rdi
  402c04:	b8 00 00 00 00       	mov    $0x0,%eax
  402c09:	e8 72 e2 ff ff       	callq  400e80 <__sprintf_chk@plt>
  402c0e:	89 ef                	mov    %ebp,%edi
  402c10:	e8 1b e1 ff ff       	callq  400d30 <close@plt>
  402c15:	b8 ff ff ff ff       	mov    $0xffffffff,%eax
  402c1a:	e9 97 00 00 00       	jmpq   402cb6 <submitr+0x746>
  402c1f:	48 8d b4 24 40 20 00 	lea    0x2040(%rsp),%rsi
  402c26:	00 
  402c27:	48 89 df             	mov    %rbx,%rdi
  402c2a:	e8 91 e0 ff ff       	callq  400cc0 <strcpy@plt>
  402c2f:	89 ef                	mov    %ebp,%edi
  402c31:	e8 fa e0 ff ff       	callq  400d30 <close@plt>
  402c36:	0f b6 03             	movzbl (%rbx),%eax
  402c39:	ba 4f 00 00 00       	mov    $0x4f,%edx
  402c3e:	29 c2                	sub    %eax,%edx
  402c40:	75 22                	jne    402c64 <submitr+0x6f4>
  402c42:	0f b6 4b 01          	movzbl 0x1(%rbx),%ecx
  402c46:	b8 4b 00 00 00       	mov    $0x4b,%eax
  402c4b:	29 c8                	sub    %ecx,%eax
  402c4d:	75 17                	jne    402c66 <submitr+0x6f6>
  402c4f:	0f b6 4b 02          	movzbl 0x2(%rbx),%ecx
  402c53:	b8 0a 00 00 00       	mov    $0xa,%eax
  402c58:	29 c8                	sub    %ecx,%eax
  402c5a:	75 0a                	jne    402c66 <submitr+0x6f6>
  402c5c:	0f b6 43 03          	movzbl 0x3(%rbx),%eax
  402c60:	f7 d8                	neg    %eax
  402c62:	eb 02                	jmp    402c66 <submitr+0x6f6>
  402c64:	89 d0                	mov    %edx,%eax
  402c66:	85 c0                	test   %eax,%eax
  402c68:	74 40                	je     402caa <submitr+0x73a>
  402c6a:	bf 20 38 40 00       	mov    $0x403820,%edi
  402c6f:	b9 05 00 00 00       	mov    $0x5,%ecx
  402c74:	48 89 de             	mov    %rbx,%rsi
  402c77:	f3 a6                	repz cmpsb %es:(%rdi),%ds:(%rsi)
  402c79:	0f 97 c0             	seta   %al
  402c7c:	0f 92 c1             	setb   %cl
  402c7f:	29 c8                	sub    %ecx,%eax
  402c81:	0f be c0             	movsbl %al,%eax
  402c84:	85 c0                	test   %eax,%eax
  402c86:	74 2e                	je     402cb6 <submitr+0x746>
  402c88:	85 d2                	test   %edx,%edx
  402c8a:	75 13                	jne    402c9f <submitr+0x72f>
  402c8c:	0f b6 43 01          	movzbl 0x1(%rbx),%eax
  402c90:	ba 4b 00 00 00       	mov    $0x4b,%edx
  402c95:	29 c2                	sub    %eax,%edx
  402c97:	75 06                	jne    402c9f <submitr+0x72f>
  402c99:	0f b6 53 02          	movzbl 0x2(%rbx),%edx
  402c9d:	f7 da                	neg    %edx
  402c9f:	85 d2                	test   %edx,%edx
  402ca1:	75 0e                	jne    402cb1 <submitr+0x741>
  402ca3:	b8 00 00 00 00       	mov    $0x0,%eax
  402ca8:	eb 0c                	jmp    402cb6 <submitr+0x746>
  402caa:	b8 00 00 00 00       	mov    $0x0,%eax
  402caf:	eb 05                	jmp    402cb6 <submitr+0x746>
  402cb1:	b8 ff ff ff ff       	mov    $0xffffffff,%eax
  402cb6:	48 8b 9c 24 48 a0 00 	mov    0xa048(%rsp),%rbx
  402cbd:	00 
  402cbe:	64 48 33 1c 25 28 00 	xor    %fs:0x28,%rbx
  402cc5:	00 00 
  402cc7:	74 05                	je     402cce <submitr+0x75e>
  402cc9:	e8 22 e0 ff ff       	callq  400cf0 <__stack_chk_fail@plt>
  402cce:	48 81 c4 58 a0 00 00 	add    $0xa058,%rsp
  402cd5:	5b                   	pop    %rbx
  402cd6:	5d                   	pop    %rbp
  402cd7:	41 5c                	pop    %r12
  402cd9:	41 5d                	pop    %r13
  402cdb:	41 5e                	pop    %r14
  402cdd:	41 5f                	pop    %r15
  402cdf:	c3                   	retq   

0000000000402ce0 <init_timeout>:
  402ce0:	85 ff                	test   %edi,%edi
  402ce2:	74 23                	je     402d07 <init_timeout+0x27>
  402ce4:	53                   	push   %rbx
  402ce5:	89 fb                	mov    %edi,%ebx
  402ce7:	85 ff                	test   %edi,%edi
  402ce9:	79 05                	jns    402cf0 <init_timeout+0x10>
  402ceb:	bb 00 00 00 00       	mov    $0x0,%ebx
  402cf0:	be a4 22 40 00       	mov    $0x4022a4,%esi
  402cf5:	bf 0e 00 00 00       	mov    $0xe,%edi
  402cfa:	e8 61 e0 ff ff       	callq  400d60 <signal@plt>
  402cff:	89 df                	mov    %ebx,%edi
  402d01:	e8 1a e0 ff ff       	callq  400d20 <alarm@plt>
  402d06:	5b                   	pop    %rbx
  402d07:	f3 c3                	repz retq 

0000000000402d09 <init_driver>:
  402d09:	55                   	push   %rbp
  402d0a:	53                   	push   %rbx
  402d0b:	48 83 ec 28          	sub    $0x28,%rsp
  402d0f:	48 89 fd             	mov    %rdi,%rbp
  402d12:	64 48 8b 04 25 28 00 	mov    %fs:0x28,%rax
  402d19:	00 00 
  402d1b:	48 89 44 24 18       	mov    %rax,0x18(%rsp)
  402d20:	31 c0                	xor    %eax,%eax
  402d22:	be 01 00 00 00       	mov    $0x1,%esi
  402d27:	bf 0d 00 00 00       	mov    $0xd,%edi
  402d2c:	e8 2f e0 ff ff       	callq  400d60 <signal@plt>
  402d31:	be 01 00 00 00       	mov    $0x1,%esi
  402d36:	bf 1d 00 00 00       	mov    $0x1d,%edi
  402d3b:	e8 20 e0 ff ff       	callq  400d60 <signal@plt>
  402d40:	be 01 00 00 00       	mov    $0x1,%esi
  402d45:	bf 1d 00 00 00       	mov    $0x1d,%edi
  402d4a:	e8 11 e0 ff ff       	callq  400d60 <signal@plt>
  402d4f:	ba 00 00 00 00       	mov    $0x0,%edx
  402d54:	be 01 00 00 00       	mov    $0x1,%esi
  402d59:	bf 02 00 00 00       	mov    $0x2,%edi
  402d5e:	e8 2d e1 ff ff       	callq  400e90 <socket@plt>
  402d63:	85 c0                	test   %eax,%eax
  402d65:	79 4f                	jns    402db6 <init_driver+0xad>
  402d67:	48 b8 45 72 72 6f 72 	movabs $0x43203a726f727245,%rax
  402d6e:	3a 20 43 
  402d71:	48 89 45 00          	mov    %rax,0x0(%rbp)
  402d75:	48 b8 6c 69 65 6e 74 	movabs $0x6e7520746e65696c,%rax
  402d7c:	20 75 6e 
  402d7f:	48 89 45 08          	mov    %rax,0x8(%rbp)
  402d83:	48 b8 61 62 6c 65 20 	movabs $0x206f7420656c6261,%rax
  402d8a:	74 6f 20 
  402d8d:	48 89 45 10          	mov    %rax,0x10(%rbp)
  402d91:	48 b8 63 72 65 61 74 	movabs $0x7320657461657263,%rax
  402d98:	65 20 73 
  402d9b:	48 89 45 18          	mov    %rax,0x18(%rbp)
  402d9f:	c7 45 20 6f 63 6b 65 	movl   $0x656b636f,0x20(%rbp)
  402da6:	66 c7 45 24 74 00    	movw   $0x74,0x24(%rbp)
  402dac:	b8 ff ff ff ff       	mov    $0xffffffff,%eax
  402db1:	e9 2a 01 00 00       	jmpq   402ee0 <init_driver+0x1d7>
  402db6:	89 c3                	mov    %eax,%ebx
  402db8:	bf 5c 33 40 00       	mov    $0x40335c,%edi
  402dbd:	e8 ae df ff ff       	callq  400d70 <gethostbyname@plt>
  402dc2:	48 85 c0             	test   %rax,%rax
  402dc5:	75 68                	jne    402e2f <init_driver+0x126>
  402dc7:	48 b8 45 72 72 6f 72 	movabs $0x44203a726f727245,%rax
  402dce:	3a 20 44 
  402dd1:	48 89 45 00          	mov    %rax,0x0(%rbp)
  402dd5:	48 b8 4e 53 20 69 73 	movabs $0x6e7520736920534e,%rax
  402ddc:	20 75 6e 
  402ddf:	48 89 45 08          	mov    %rax,0x8(%rbp)
  402de3:	48 b8 61 62 6c 65 20 	movabs $0x206f7420656c6261,%rax
  402dea:	74 6f 20 
  402ded:	48 89 45 10          	mov    %rax,0x10(%rbp)
  402df1:	48 b8 72 65 73 6f 6c 	movabs $0x2065766c6f736572,%rax
  402df8:	76 65 20 
  402dfb:	48 89 45 18          	mov    %rax,0x18(%rbp)
  402dff:	48 b8 73 65 72 76 65 	movabs $0x6120726576726573,%rax
  402e06:	72 20 61 
  402e09:	48 89 45 20          	mov    %rax,0x20(%rbp)
  402e0d:	c7 45 28 64 64 72 65 	movl   $0x65726464,0x28(%rbp)
  402e14:	66 c7 45 2c 73 73    	movw   $0x7373,0x2c(%rbp)
  402e1a:	c6 45 2e 00          	movb   $0x0,0x2e(%rbp)
  402e1e:	89 df                	mov    %ebx,%edi
  402e20:	e8 0b df ff ff       	callq  400d30 <close@plt>
  402e25:	b8 ff ff ff ff       	mov    $0xffffffff,%eax
  402e2a:	e9 b1 00 00 00       	jmpq   402ee0 <init_driver+0x1d7>
  402e2f:	48 c7 04 24 00 00 00 	movq   $0x0,(%rsp)
  402e36:	00 
  402e37:	48 c7 44 24 08 00 00 	movq   $0x0,0x8(%rsp)
  402e3e:	00 00 
  402e40:	66 c7 04 24 02 00    	movw   $0x2,(%rsp)
  402e46:	48 63 50 14          	movslq 0x14(%rax),%rdx
  402e4a:	48 8b 40 18          	mov    0x18(%rax),%rax
  402e4e:	48 8b 30             	mov    (%rax),%rsi
  402e51:	48 8d 7c 24 04       	lea    0x4(%rsp),%rdi
  402e56:	b9 0c 00 00 00       	mov    $0xc,%ecx
  402e5b:	e8 20 df ff ff       	callq  400d80 <__memmove_chk@plt>
  402e60:	66 c7 44 24 02 55 fc 	movw   $0xfc55,0x2(%rsp)
  402e67:	ba 10 00 00 00       	mov    $0x10,%edx
  402e6c:	48 89 e6             	mov    %rsp,%rsi
  402e6f:	89 df                	mov    %ebx,%edi
  402e71:	e8 ea df ff ff       	callq  400e60 <connect@plt>
  402e76:	85 c0                	test   %eax,%eax
  402e78:	79 50                	jns    402eca <init_driver+0x1c1>
  402e7a:	48 b8 45 72 72 6f 72 	movabs $0x55203a726f727245,%rax
  402e81:	3a 20 55 
  402e84:	48 89 45 00          	mov    %rax,0x0(%rbp)
  402e88:	48 b8 6e 61 62 6c 65 	movabs $0x6f7420656c62616e,%rax
  402e8f:	20 74 6f 
  402e92:	48 89 45 08          	mov    %rax,0x8(%rbp)
  402e96:	48 b8 20 63 6f 6e 6e 	movabs $0x7463656e6e6f6320,%rax
  402e9d:	65 63 74 
  402ea0:	48 89 45 10          	mov    %rax,0x10(%rbp)
  402ea4:	48 b8 20 74 6f 20 73 	movabs $0x76726573206f7420,%rax
  402eab:	65 72 76 
  402eae:	48 89 45 18          	mov    %rax,0x18(%rbp)
  402eb2:	66 c7 45 20 65 72    	movw   $0x7265,0x20(%rbp)
  402eb8:	c6 45 22 00          	movb   $0x0,0x22(%rbp)
  402ebc:	89 df                	mov    %ebx,%edi
  402ebe:	e8 6d de ff ff       	callq  400d30 <close@plt>
  402ec3:	b8 ff ff ff ff       	mov    $0xffffffff,%eax
  402ec8:	eb 16                	jmp    402ee0 <init_driver+0x1d7>
  402eca:	89 df                	mov    %ebx,%edi
  402ecc:	e8 5f de ff ff       	callq  400d30 <close@plt>
  402ed1:	66 c7 45 00 4f 4b    	movw   $0x4b4f,0x0(%rbp)
  402ed7:	c6 45 02 00          	movb   $0x0,0x2(%rbp)
  402edb:	b8 00 00 00 00       	mov    $0x0,%eax
  402ee0:	48 8b 4c 24 18       	mov    0x18(%rsp),%rcx
  402ee5:	64 48 33 0c 25 28 00 	xor    %fs:0x28,%rcx
  402eec:	00 00 
  402eee:	74 05                	je     402ef5 <init_driver+0x1ec>
  402ef0:	e8 fb dd ff ff       	callq  400cf0 <__stack_chk_fail@plt>
  402ef5:	48 83 c4 28          	add    $0x28,%rsp
  402ef9:	5b                   	pop    %rbx
  402efa:	5d                   	pop    %rbp
  402efb:	c3                   	retq   

0000000000402efc <driver_post>:
  402efc:	53                   	push   %rbx
  402efd:	4c 89 cb             	mov    %r9,%rbx
  402f00:	45 85 c0             	test   %r8d,%r8d
  402f03:	74 27                	je     402f2c <driver_post+0x30>
  402f05:	48 89 ca             	mov    %rcx,%rdx
  402f08:	be 25 38 40 00       	mov    $0x403825,%esi
  402f0d:	bf 01 00 00 00       	mov    $0x1,%edi
  402f12:	b8 00 00 00 00       	mov    $0x0,%eax
  402f17:	e8 e4 de ff ff       	callq  400e00 <__printf_chk@plt>
  402f1c:	66 c7 03 4f 4b       	movw   $0x4b4f,(%rbx)
  402f21:	c6 43 02 00          	movb   $0x0,0x2(%rbx)
  402f25:	b8 00 00 00 00       	mov    $0x0,%eax
  402f2a:	eb 3f                	jmp    402f6b <driver_post+0x6f>
  402f2c:	48 85 ff             	test   %rdi,%rdi
  402f2f:	74 2c                	je     402f5d <driver_post+0x61>
  402f31:	80 3f 00             	cmpb   $0x0,(%rdi)
  402f34:	74 27                	je     402f5d <driver_post+0x61>
  402f36:	48 83 ec 08          	sub    $0x8,%rsp
  402f3a:	41 51                	push   %r9
  402f3c:	49 89 c9             	mov    %rcx,%r9
  402f3f:	49 89 d0             	mov    %rdx,%r8
  402f42:	48 89 f9             	mov    %rdi,%rcx
  402f45:	48 89 f2             	mov    %rsi,%rdx
  402f48:	be fc 55 00 00       	mov    $0x55fc,%esi
  402f4d:	bf 5c 33 40 00       	mov    $0x40335c,%edi
  402f52:	e8 19 f6 ff ff       	callq  402570 <submitr>
  402f57:	48 83 c4 10          	add    $0x10,%rsp
  402f5b:	eb 0e                	jmp    402f6b <driver_post+0x6f>
  402f5d:	66 c7 03 4f 4b       	movw   $0x4b4f,(%rbx)
  402f62:	c6 43 02 00          	movb   $0x0,0x2(%rbx)
  402f66:	b8 00 00 00 00       	mov    $0x0,%eax
  402f6b:	5b                   	pop    %rbx
  402f6c:	c3                   	retq   

0000000000402f6d <check>:
  402f6d:	89 f8                	mov    %edi,%eax
  402f6f:	c1 e8 1c             	shr    $0x1c,%eax
  402f72:	85 c0                	test   %eax,%eax
  402f74:	74 1d                	je     402f93 <check+0x26>
  402f76:	b9 00 00 00 00       	mov    $0x0,%ecx
  402f7b:	eb 0b                	jmp    402f88 <check+0x1b>
  402f7d:	89 f8                	mov    %edi,%eax
  402f7f:	d3 e8                	shr    %cl,%eax
  402f81:	3c 0a                	cmp    $0xa,%al
  402f83:	74 14                	je     402f99 <check+0x2c>
  402f85:	83 c1 08             	add    $0x8,%ecx
  402f88:	83 f9 1f             	cmp    $0x1f,%ecx
  402f8b:	7e f0                	jle    402f7d <check+0x10>
  402f8d:	b8 01 00 00 00       	mov    $0x1,%eax
  402f92:	c3                   	retq   
  402f93:	b8 00 00 00 00       	mov    $0x0,%eax
  402f98:	c3                   	retq   
  402f99:	b8 00 00 00 00       	mov    $0x0,%eax
  402f9e:	c3                   	retq   

0000000000402f9f <gencookie>:
  402f9f:	53                   	push   %rbx
  402fa0:	83 c7 01             	add    $0x1,%edi
  402fa3:	e8 f8 dc ff ff       	callq  400ca0 <srandom@plt>
  402fa8:	e8 13 de ff ff       	callq  400dc0 <random@plt>
  402fad:	89 c3                	mov    %eax,%ebx
  402faf:	89 c7                	mov    %eax,%edi
  402fb1:	e8 b7 ff ff ff       	callq  402f6d <check>
  402fb6:	85 c0                	test   %eax,%eax
  402fb8:	74 ee                	je     402fa8 <gencookie+0x9>
  402fba:	89 d8                	mov    %ebx,%eax
  402fbc:	5b                   	pop    %rbx
  402fbd:	c3                   	retq   
  402fbe:	66 90                	xchg   %ax,%ax

0000000000402fc0 <__libc_csu_init>:
  402fc0:	41 57                	push   %r15
  402fc2:	41 56                	push   %r14
  402fc4:	41 89 ff             	mov    %edi,%r15d
  402fc7:	41 55                	push   %r13
  402fc9:	41 54                	push   %r12
  402fcb:	4c 8d 25 3e 1e 20 00 	lea    0x201e3e(%rip),%r12        # 604e10 <__frame_dummy_init_array_entry>
  402fd2:	55                   	push   %rbp
  402fd3:	48 8d 2d 3e 1e 20 00 	lea    0x201e3e(%rip),%rbp        # 604e18 <__init_array_end>
  402fda:	53                   	push   %rbx
  402fdb:	49 89 f6             	mov    %rsi,%r14
  402fde:	49 89 d5             	mov    %rdx,%r13
  402fe1:	4c 29 e5             	sub    %r12,%rbp
  402fe4:	48 83 ec 08          	sub    $0x8,%rsp
  402fe8:	48 c1 fd 03          	sar    $0x3,%rbp
  402fec:	e8 57 dc ff ff       	callq  400c48 <_init>
  402ff1:	48 85 ed             	test   %rbp,%rbp
  402ff4:	74 20                	je     403016 <__libc_csu_init+0x56>
  402ff6:	31 db                	xor    %ebx,%ebx
  402ff8:	0f 1f 84 00 00 00 00 	nopl   0x0(%rax,%rax,1)
  402fff:	00 
  403000:	4c 89 ea             	mov    %r13,%rdx
  403003:	4c 89 f6             	mov    %r14,%rsi
  403006:	44 89 ff             	mov    %r15d,%edi
  403009:	41 ff 14 dc          	callq  *(%r12,%rbx,8)
  40300d:	48 83 c3 01          	add    $0x1,%rbx
  403011:	48 39 eb             	cmp    %rbp,%rbx
  403014:	75 ea                	jne    403000 <__libc_csu_init+0x40>
  403016:	48 83 c4 08          	add    $0x8,%rsp
  40301a:	5b                   	pop    %rbx
  40301b:	5d                   	pop    %rbp
  40301c:	41 5c                	pop    %r12
  40301e:	41 5d                	pop    %r13
  403020:	41 5e                	pop    %r14
  403022:	41 5f                	pop    %r15
  403024:	c3                   	retq   
  403025:	90                   	nop
  403026:	66 2e 0f 1f 84 00 00 	nopw   %cs:0x0(%rax,%rax,1)
  40302d:	00 00 00 

0000000000403030 <__libc_csu_fini>:
  403030:	f3 c3                	repz retq 

Disassembly of section .fini:

0000000000403034 <_fini>:
  403034:	48 83 ec 08          	sub    $0x8,%rsp
  403038:	48 83 c4 08          	add    $0x8,%rsp
  40303c:	c3                   	retq   
